ccopy_reg
_reconstructor
p1
(cmatplotlib.font_manager
FontManager
p2
c__builtin__
object
p3
NtRp4
(dp5
S'ttflist'
p6
(lp7
g1
(cmatplotlib.font_manager
FontEntry
p8
g3
NtRp9
(dp10
S'style'
p11
Vnormal
p12
sS'name'
p13
VSTIXNonUnicode
p14
sS'weight'
p15
I700
sS'stretch'
p16
g12
sS'variant'
p17
g12
sS'fname'
p18
V/Users/Fechin/.pyenv/versions/2.7.15/lib/python2.7/site-packages/matplotlib/mpl-data/fonts/ttf/STIXNonUniBol.ttf
p19
sS'size'
p20
Vscalable
p21
sbag1
(g8
g3
NtRp22
(dp23
g11
g12
sg13
VSTIXSizeFiveSym
p24
sg15
I400
sg16
g12
sg17
g12
sg18
V/Users/Fechin/.pyenv/versions/2.7.15/lib/python2.7/site-packages/matplotlib/mpl-data/fonts/ttf/STIXSizFiveSymReg.ttf
p25
sg20
g21
sbag1
(g8
g3
NtRp26
(dp27
g11
Vitalic
p28
sg13
VSTIXGeneral
p29
sg15
I700
sg16
g12
sg17
g12
sg18
V/Users/Fechin/.pyenv/versions/2.7.15/lib/python2.7/site-packages/matplotlib/mpl-data/fonts/ttf/STIXGeneralBolIta.ttf
p30
sg20
g21
sbag1
(g8
g3
NtRp31
(dp32
g11
g12
sg13
Vcmex10
p33
sg15
I400
sg16
g12
sg17
g12
sg18
V/Users/Fechin/.pyenv/versions/2.7.15/lib/python2.7/site-packages/matplotlib/mpl-data/fonts/ttf/cmex10.ttf
p34
sg20
g21
sbag1
(g8
g3
NtRp35
(dp36
g11
g12
sg13
VSTIXSizeFourSym
p37
sg15
I400
sg16
g12
sg17
g12
sg18
V/Users/Fechin/.pyenv/versions/2.7.15/lib/python2.7/site-packages/matplotlib/mpl-data/fonts/ttf/STIXSizFourSymReg.ttf
p38
sg20
g21
sbag1
(g8
g3
NtRp39
(dp40
g11
g28
sg13
VDejaVu Serif
p41
sg15
I700
sg16
g12
sg17
g12
sg18
V/Users/Fechin/.pyenv/versions/2.7.15/lib/python2.7/site-packages/matplotlib/mpl-data/fonts/ttf/DejaVuSerif-BoldItalic.ttf
p42
sg20
g21
sbag1
(g8
g3
NtRp43
(dp44
g11
Voblique
p45
sg13
VDejaVu Sans
p46
sg15
I400
sg16
g12
sg17
g12
sg18
V/Users/Fechin/.pyenv/versions/2.7.15/lib/python2.7/site-packages/matplotlib/mpl-data/fonts/ttf/DejaVuSans-Oblique.ttf
p47
sg20
g21
sbag1
(g8
g3
NtRp48
(dp49
g11
g12
sg13
Vcmb10
p50
sg15
I400
sg16
g12
sg17
g12
sg18
V/Users/Fechin/.pyenv/versions/2.7.15/lib/python2.7/site-packages/matplotlib/mpl-data/fonts/ttf/cmb10.ttf
p51
sg20
g21
sbag1
(g8
g3
NtRp52
(dp53
g11
g28
sg13
VSTIXNonUnicode
p54
sg15
I700
sg16
g12
sg17
g12
sg18
V/Users/Fechin/.pyenv/versions/2.7.15/lib/python2.7/site-packages/matplotlib/mpl-data/fonts/ttf/STIXNonUniBolIta.ttf
p55
sg20
g21
sbag1
(g8
g3
NtRp56
(dp57
g11
g12
sg13
VSTIXSizeFourSym
p58
sg15
I700
sg16
g12
sg17
g12
sg18
V/Users/Fechin/.pyenv/versions/2.7.15/lib/python2.7/site-packages/matplotlib/mpl-data/fonts/ttf/STIXSizFourSymBol.ttf
p59
sg20
g21
sbag1
(g8
g3
NtRp60
(dp61
g11
g12
sg13
VDejaVu Serif
p62
sg15
I400
sg16
g12
sg17
g12
sg18
V/Users/Fechin/.pyenv/versions/2.7.15/lib/python2.7/site-packages/matplotlib/mpl-data/fonts/ttf/DejaVuSerif.ttf
p63
sg20
g21
sbag1
(g8
g3
NtRp64
(dp65
g11
g12
sg13
VDejaVu Sans Mono
p66
sg15
I700
sg16
g12
sg17
g12
sg18
V/Users/Fechin/.pyenv/versions/2.7.15/lib/python2.7/site-packages/matplotlib/mpl-data/fonts/ttf/DejaVuSansMono-Bold.ttf
p67
sg20
g21
sbag1
(g8
g3
NtRp68
(dp69
g11
g12
sg13
VSTIXSizeOneSym
p70
sg15
I400
sg16
g12
sg17
g12
sg18
V/Users/Fechin/.pyenv/versions/2.7.15/lib/python2.7/site-packages/matplotlib/mpl-data/fonts/ttf/STIXSizOneSymReg.ttf
p71
sg20
g21
sbag1
(g8
g3
NtRp72
(dp73
g11
g12
sg13
VDejaVu Sans
p74
sg15
I400
sg16
g12
sg17
g12
sg18
V/Users/Fechin/.pyenv/versions/2.7.15/lib/python2.7/site-packages/matplotlib/mpl-data/fonts/ttf/DejaVuSans.ttf
p75
sg20
g21
sbag1
(g8
g3
NtRp76
(dp77
g11
g12
sg13
VDejaVu Sans
p78
sg15
I700
sg16
g12
sg17
g12
sg18
V/Users/Fechin/.pyenv/versions/2.7.15/lib/python2.7/site-packages/matplotlib/mpl-data/fonts/ttf/DejaVuSans-Bold.ttf
p79
sg20
g21
sbag1
(g8
g3
NtRp80
(dp81
g11
g45
sg13
VDejaVu Sans
p82
sg15
I700
sg16
g12
sg17
g12
sg18
V/Users/Fechin/.pyenv/versions/2.7.15/lib/python2.7/site-packages/matplotlib/mpl-data/fonts/ttf/DejaVuSans-BoldOblique.ttf
p83
sg20
g21
sbag1
(g8
g3
NtRp84
(dp85
g11
g28
sg13
VSTIXNonUnicode
p86
sg15
I400
sg16
g12
sg17
g12
sg18
V/Users/Fechin/.pyenv/versions/2.7.15/lib/python2.7/site-packages/matplotlib/mpl-data/fonts/ttf/STIXNonUniIta.ttf
p87
sg20
g21
sbag1
(g8
g3
NtRp88
(dp89
g11
g12
sg13
VSTIXNonUnicode
p90
sg15
I400
sg16
g12
sg17
g12
sg18
V/Users/Fechin/.pyenv/versions/2.7.15/lib/python2.7/site-packages/matplotlib/mpl-data/fonts/ttf/STIXNonUni.ttf
p91
sg20
g21
sbag1
(g8
g3
NtRp92
(dp93
g11
g12
sg13
VSTIXSizeTwoSym
p94
sg15
I700
sg16
g12
sg17
g12
sg18
V/Users/Fechin/.pyenv/versions/2.7.15/lib/python2.7/site-packages/matplotlib/mpl-data/fonts/ttf/STIXSizTwoSymBol.ttf
p95
sg20
g21
sbag1
(g8
g3
NtRp96
(dp97
g11
g12
sg13
VDejaVu Serif
p98
sg15
I700
sg16
g12
sg17
g12
sg18
V/Users/Fechin/.pyenv/versions/2.7.15/lib/python2.7/site-packages/matplotlib/mpl-data/fonts/ttf/DejaVuSerif-Bold.ttf
p99
sg20
g21
sbag1
(g8
g3
NtRp100
(dp101
g11
g12
sg13
Vcmtt10
p102
sg15
I400
sg16
g12
sg17
g12
sg18
V/Users/Fechin/.pyenv/versions/2.7.15/lib/python2.7/site-packages/matplotlib/mpl-data/fonts/ttf/cmtt10.ttf
p103
sg20
g21
sbag1
(g8
g3
NtRp104
(dp105
g11
g12
sg13
VSTIXSizeOneSym
p106
sg15
I700
sg16
g12
sg17
g12
sg18
V/Users/Fechin/.pyenv/versions/2.7.15/lib/python2.7/site-packages/matplotlib/mpl-data/fonts/ttf/STIXSizOneSymBol.ttf
p107
sg20
g21
sbag1
(g8
g3
NtRp108
(dp109
g11
g12
sg13
Vcmsy10
p110
sg15
I400
sg16
g12
sg17
g12
sg18
V/Users/Fechin/.pyenv/versions/2.7.15/lib/python2.7/site-packages/matplotlib/mpl-data/fonts/ttf/cmsy10.ttf
p111
sg20
g21
sbag1
(g8
g3
NtRp112
(dp113
g11
g12
sg13
Vcmmi10
p114
sg15
I400
sg16
g12
sg17
g12
sg18
V/Users/Fechin/.pyenv/versions/2.7.15/lib/python2.7/site-packages/matplotlib/mpl-data/fonts/ttf/cmmi10.ttf
p115
sg20
g21
sbag1
(g8
g3
NtRp116
(dp117
g11
g12
sg13
VSTIXSizeTwoSym
p118
sg15
I400
sg16
g12
sg17
g12
sg18
V/Users/Fechin/.pyenv/versions/2.7.15/lib/python2.7/site-packages/matplotlib/mpl-data/fonts/ttf/STIXSizTwoSymReg.ttf
p119
sg20
g21
sbag1
(g8
g3
NtRp120
(dp121
g11
g12
sg13
VDejaVu Sans Mono
p122
sg15
I400
sg16
g12
sg17
g12
sg18
V/Users/Fechin/.pyenv/versions/2.7.15/lib/python2.7/site-packages/matplotlib/mpl-data/fonts/ttf/DejaVuSansMono.ttf
p123
sg20
g21
sbag1
(g8
g3
NtRp124
(dp125
g11
g12
sg13
VSTIXGeneral
p126
sg15
I400
sg16
g12
sg17
g12
sg18
V/Users/Fechin/.pyenv/versions/2.7.15/lib/python2.7/site-packages/matplotlib/mpl-data/fonts/ttf/STIXGeneral.ttf
p127
sg20
g21
sbag1
(g8
g3
NtRp128
(dp129
g11
g45
sg13
VDejaVu Sans Mono
p130
sg15
I400
sg16
g12
sg17
g12
sg18
V/Users/Fechin/.pyenv/versions/2.7.15/lib/python2.7/site-packages/matplotlib/mpl-data/fonts/ttf/DejaVuSansMono-Oblique.ttf
p131
sg20
g21
sbag1
(g8
g3
NtRp132
(dp133
g11
g28
sg13
VDejaVu Serif
p134
sg15
I400
sg16
g12
sg17
g12
sg18
V/Users/Fechin/.pyenv/versions/2.7.15/lib/python2.7/site-packages/matplotlib/mpl-data/fonts/ttf/DejaVuSerif-Italic.ttf
p135
sg20
g21
sbag1
(g8
g3
NtRp136
(dp137
g11
g12
sg13
Vcmss10
p138
sg15
I400
sg16
g12
sg17
g12
sg18
V/Users/Fechin/.pyenv/versions/2.7.15/lib/python2.7/site-packages/matplotlib/mpl-data/fonts/ttf/cmss10.ttf
p139
sg20
g21
sbag1
(g8
g3
NtRp140
(dp141
g11
g12
sg13
VDejaVu Sans Display
p142
sg15
I400
sg16
g12
sg17
g12
sg18
V/Users/Fechin/.pyenv/versions/2.7.15/lib/python2.7/site-packages/matplotlib/mpl-data/fonts/ttf/DejaVuSansDisplay.ttf
p143
sg20
g21
sbag1
(g8
g3
NtRp144
(dp145
g11
g12
sg13
Vcmr10
p146
sg15
I400
sg16
g12
sg17
g12
sg18
V/Users/Fechin/.pyenv/versions/2.7.15/lib/python2.7/site-packages/matplotlib/mpl-data/fonts/ttf/cmr10.ttf
p147
sg20
g21
sbag1
(g8
g3
NtRp148
(dp149
g11
g12
sg13
VDejaVu Serif Display
p150
sg15
I400
sg16
g12
sg17
g12
sg18
V/Users/Fechin/.pyenv/versions/2.7.15/lib/python2.7/site-packages/matplotlib/mpl-data/fonts/ttf/DejaVuSerifDisplay.ttf
p151
sg20
g21
sbag1
(g8
g3
NtRp152
(dp153
g11
g45
sg13
VDejaVu Sans Mono
p154
sg15
I700
sg16
g12
sg17
g12
sg18
V/Users/Fechin/.pyenv/versions/2.7.15/lib/python2.7/site-packages/matplotlib/mpl-data/fonts/ttf/DejaVuSansMono-BoldOblique.ttf
p155
sg20
g21
sbag1
(g8
g3
NtRp156
(dp157
g11
g12
sg13
VSTIXSizeThreeSym
p158
sg15
I400
sg16
g12
sg17
g12
sg18
V/Users/Fechin/.pyenv/versions/2.7.15/lib/python2.7/site-packages/matplotlib/mpl-data/fonts/ttf/STIXSizThreeSymReg.ttf
p159
sg20
g21
sbag1
(g8
g3
NtRp160
(dp161
g11
g12
sg13
VSTIXGeneral
p162
sg15
I700
sg16
g12
sg17
g12
sg18
V/Users/Fechin/.pyenv/versions/2.7.15/lib/python2.7/site-packages/matplotlib/mpl-data/fonts/ttf/STIXGeneralBol.ttf
p163
sg20
g21
sbag1
(g8
g3
NtRp164
(dp165
g11
g28
sg13
VSTIXGeneral
p166
sg15
I400
sg16
g12
sg17
g12
sg18
V/Users/Fechin/.pyenv/versions/2.7.15/lib/python2.7/site-packages/matplotlib/mpl-data/fonts/ttf/STIXGeneralItalic.ttf
p167
sg20
g21
sbag1
(g8
g3
NtRp168
(dp169
g11
g12
sg13
VSTIXSizeThreeSym
p170
sg15
I700
sg16
g12
sg17
g12
sg18
V/Users/Fechin/.pyenv/versions/2.7.15/lib/python2.7/site-packages/matplotlib/mpl-data/fonts/ttf/STIXSizThreeSymBol.ttf
p171
sg20
g21
sbag1
(g8
g3
NtRp172
(dp173
g11
g28
sg13
VTrebuchet MS
p174
sg15
I400
sg16
g12
sg17
g12
sg18
V/Library/Fonts/Trebuchet MS Italic.ttf
p175
sg20
g21
sbag1
(g8
g3
NtRp176
(dp177
g11
g12
sg13
VTimes New Roman
p178
sg15
I500
sg16
g12
sg17
g12
sg18
V/Library/Fonts/Times New Roman.ttf
p179
sg20
g21
sbag1
(g8
g3
NtRp180
(dp181
g11
g12
sg13
VSource Code Pro for Powerline
p182
sg15
I700
sg16
g12
sg17
g12
sg18
V/Users/Fechin/Library/Fonts/Source Code Pro Bold for Powerline.otf
p183
sg20
g21
sbag1
(g8
g3
NtRp184
(dp185
g11
g12
sg13
VSystem Font
p186
sg15
I400
sg16
g12
sg17
g12
sg18
V/System/Library/Fonts/SFNSDisplay-BoldItalic.otf
p187
sg20
g21
sbag1
(g8
g3
NtRp188
(dp189
g11
g12
sg13
VEstrangelo Talada
p190
sg15
I400
sg16
g12
sg17
g12
sg18
V/usr/X11/lib/X11/fonts/OTF/SyrCOMTalada.otf
p191
sg20
g21
sbag1
(g8
g3
NtRp192
(dp193
g11
g12
sg13
VMeslo LG L DZ for Powerline
p194
sg15
I700
sg16
g12
sg17
g12
sg18
V/Users/Fechin/Library/Fonts/Meslo LG L DZ Bold for Powerline.ttf
p195
sg20
g21
sbag1
(g8
g3
NtRp196
(dp197
g11
g12
sg13
VComic Sans MS
p198
sg15
I700
sg16
g12
sg17
g12
sg18
V/Library/Fonts/Comic Sans MS Bold.ttf
p199
sg20
g21
sbag1
(g8
g3
NtRp200
(dp201
g11
g45
sg13
VLuxi Mono
p202
sg15
I700
sg16
g12
sg17
g12
sg18
V/opt/X11/share/fonts/TTF/luximbi.ttf
p203
sg20
g21
sbag1
(g8
g3
NtRp204
(dp205
g11
g28
sg13
VSerto Jerusalem
p206
sg15
I400
sg16
g12
sg17
g12
sg18
V/opt/X11/share/fonts/OTF/SyrCOMJerusalemItalic.otf
p207
sg20
g21
sbag1
(g8
g3
NtRp208
(dp209
g11
g12
sg13
V.SF Compact Rounded
p210
sg15
I400
sg16
g12
sg17
g12
sg18
V/System/Library/Fonts/SFCompactRounded-Ultralight.otf
p211
sg20
g21
sbag1
(g8
g3
NtRp212
(dp213
g11
g12
sg13
VAppleMyungjo
p214
sg15
I400
sg16
g12
sg17
g12
sg18
V/Library/Fonts/AppleMyungjo.ttf
p215
sg20
g21
sbag1
(g8
g3
NtRp216
(dp217
g11
g12
sg13
VMishafi Gold
p218
sg15
I400
sg16
g12
sg17
g12
sg18
V/Library/Fonts/Mishafi Gold.ttf
p219
sg20
g21
sbag1
(g8
g3
NtRp220
(dp221
g11
g12
sg13
VBitstream Vera Sans Mono
p222
sg15
I700
sg16
g12
sg17
g12
sg18
V/opt/X11/share/fonts/TTF/VeraMoBd.ttf
p223
sg20
g21
sbag1
(g8
g3
NtRp224
(dp225
g11
g12
sg13
VRoboto Mono for Powerline
p226
sg15
I700
sg16
g12
sg17
g12
sg18
V/Users/Fechin/Library/Fonts/Roboto Mono Bold for Powerline.ttf
p227
sg20
g21
sbag1
(g8
g3
NtRp228
(dp229
g11
g12
sg13
VRoboto Mono for Powerline
p230
sg15
I400
sg16
g12
sg17
g12
sg18
V/Users/Fechin/Library/Fonts/Roboto Mono for Powerline.ttf
p231
sg20
g21
sbag1
(g8
g3
NtRp232
(dp233
g11
g12
sg13
VBitstream Vera Sans
p234
sg15
I400
sg16
g12
sg17
g12
sg18
V/usr/X11R6/lib/X11/fonts/TTF/Vera.ttf
p235
sg20
g21
sbag1
(g8
g3
NtRp236
(dp237
g11
g12
sg13
VBitstream Vera Sans Mono
p238
sg15
I400
sg16
g12
sg17
g12
sg18
V/usr/X11R6/lib/X11/fonts/TTF/VeraMono.ttf
p239
sg20
g21
sbag1
(g8
g3
NtRp240
(dp241
g11
g12
sg13
VSTIXSizeThreeSym
p242
sg15
I700
sg16
g12
sg17
g12
sg18
V/Library/Fonts/STIXSizThreeSymBol.otf
p243
sg20
g21
sbag1
(g8
g3
NtRp244
(dp245
g11
g12
sg13
VSpace Mono for Powerline
p246
sg15
I700
sg16
g12
sg17
g12
sg18
V/Users/Fechin/Library/Fonts/Space Mono Bold for Powerline.ttf
p247
sg20
g21
sbag1
(g8
g3
NtRp248
(dp249
g11
g12
sg13
VEast Syriac Ctesiphon
p250
sg15
I400
sg16
g12
sg17
g12
sg18
V/usr/X11/lib/X11/fonts/OTF/SyrCOMCtesiphon.otf
p251
sg20
g21
sbag1
(g8
g3
NtRp252
(dp253
g11
g28
sg13
VSource Code Pro for Powerline
p254
sg15
I500
sg16
g12
sg17
g12
sg18
V/Users/Fechin/Library/Fonts/Source Code Pro Powerline MediumItalic.otf
p255
sg20
g21
sbag1
(g8
g3
NtRp256
(dp257
g11
g12
sg13
VSystem Font
p258
sg15
I400
sg16
g12
sg17
g12
sg18
V/System/Library/Fonts/SFNSDisplay-SemiboldItalic.otf
p259
sg20
g21
sbag1
(g8
g3
NtRp260
(dp261
g11
g12
sg13
VSystem Font
p262
sg15
I400
sg16
g12
sg17
g12
sg18
V/System/Library/Fonts/SFNSDisplay-RegularItalic.otf
p263
sg20
g21
sbag1
(g8
g3
NtRp264
(dp265
g11
g12
sg13
V.SF Compact Rounded
p266
sg15
I400
sg16
g12
sg17
g12
sg18
V/System/Library/Fonts/SFCompactRounded-Light.otf
p267
sg20
g21
sbag1
(g8
g3
NtRp268
(dp269
g11
g12
sg13
VProFont for Powerline
p270
sg15
I400
sg16
g12
sg17
g12
sg18
V/Users/Fechin/Library/Fonts/ProFont For Powerline.ttf
p271
sg20
g21
sbag1
(g8
g3
NtRp272
(dp273
g11
g28
sg13
VArial
p274
sg15
I700
sg16
g12
sg17
g12
sg18
V/Library/Fonts/Arial Bold Italic.ttf
p275
sg20
g21
sbag1
(g8
g3
NtRp276
(dp277
g11
g28
sg13
VHack
p278
sg15
I700
sg16
g12
sg17
g12
sg18
V/Users/Fechin/Library/Fonts/Hack-BoldItalic.ttf
p279
sg20
g21
sbag1
(g8
g3
NtRp280
(dp281
g11
g12
sg13
Vmonofur for Powerline
p282
sg15
I700
sg16
g12
sg17
g12
sg18
V/Users/Fechin/Library/Fonts/Monofur Bold for Powerline.ttf
p283
sg20
g21
sbag1
(g8
g3
NtRp284
(dp285
g11
g28
sg13
VMeslo LG S DZ for Powerline
p286
sg15
I700
sg16
g12
sg17
g12
sg18
V/Users/Fechin/Library/Fonts/Meslo LG S DZ Bold Italic for Powerline.ttf
p287
sg20
g21
sbag1
(g8
g3
NtRp288
(dp289
g11
g12
sg13
VSerto Urhoy
p290
sg15
I400
sg16
g12
sg17
g12
sg18
V/opt/X11/share/fonts/OTF/SyrCOMUrhoy.otf
p291
sg20
g21
sbag1
(g8
g3
NtRp292
(dp293
g11
g12
sg13
VFira Mono for Powerline
p294
sg15
I500
sg16
g12
sg17
g12
sg18
V/Users/Fechin/Library/Fonts/FuraMono-Medium Powerline.otf
p295
sg20
g21
sbag1
(g8
g3
NtRp296
(dp297
g11
g12
sg13
VSTIXSizeFiveSym
p298
sg15
I400
sg16
g12
sg17
g12
sg18
V/Library/Fonts/STIXSizFiveSymReg.otf
p299
sg20
g21
sbag1
(g8
g3
NtRp300
(dp301
g11
g12
sg13
VMeslo LG S DZ for Powerline
p302
sg15
I700
sg16
g12
sg17
g12
sg18
V/Users/Fechin/Library/Fonts/Meslo LG S DZ Bold for Powerline.ttf
p303
sg20
g21
sbag1
(g8
g3
NtRp304
(dp305
g11
g12
sg13
VSerto Urhoy
p306
sg15
I700
sg16
g12
sg17
g12
sg18
V/usr/X11/lib/X11/fonts/OTF/SyrCOMUrhoyBold.otf
p307
sg20
g21
sbag1
(g8
g3
NtRp308
(dp309
g11
g12
sg13
VLuxi Mono
p310
sg15
I400
sg16
g12
sg17
g12
sg18
V/opt/X11/share/fonts/TTF/luximr.ttf
p311
sg20
g21
sbag1
(g8
g3
NtRp312
(dp313
g11
g12
sg13
VGurmukhi MT
p314
sg15
I400
sg16
g12
sg17
g12
sg18
V/Library/Fonts/Gurmukhi.ttf
p315
sg20
g21
sbag1
(g8
g3
NtRp316
(dp317
g11
g12
sg13
VBitstream Vera Serif
p318
sg15
I700
sg16
g12
sg17
g12
sg18
V/usr/X11R6/lib/X11/fonts/TTF/VeraSeBd.ttf
p319
sg20
g21
sbag1
(g8
g3
NtRp320
(dp321
g11
g28
sg13
VMeslo LG S for Powerline
p322
sg15
I400
sg16
g12
sg17
g12
sg18
V/Users/Fechin/Library/Fonts/Meslo LG S Italic for Powerline.ttf
p323
sg20
g21
sbag1
(g8
g3
NtRp324
(dp325
g11
g12
sg13
VEstrangelo Quenneshrin
p326
sg15
I400
sg16
g12
sg17
g12
sg18
V/opt/X11/share/fonts/OTF/SyrCOMQenNeshrin.otf
p327
sg20
g21
sbag1
(g8
g3
NtRp328
(dp329
g11
g28
sg13
VVerdana
p330
sg15
I700
sg16
g12
sg17
g12
sg18
V/Library/Fonts/Verdana Bold Italic.ttf
p331
sg20
g21
sbag1
(g8
g3
NtRp332
(dp333
g11
g12
sg13
V.SF NS Display Condensed
p334
sg15
I400
sg16
g12
sg17
g12
sg18
V/System/Library/Fonts/SFNSDisplayCondensed-Thin.otf
p335
sg20
g21
sbag1
(g8
g3
NtRp336
(dp337
g11
g12
sg13
VSerto Malankara
p338
sg15
I400
sg16
g12
sg17
g12
sg18
V/usr/X11/lib/X11/fonts/OTF/SyrCOMMalankara.otf
p339
sg20
g21
sbag1
(g8
g3
NtRp340
(dp341
g11
g12
sg13
V.SF NS Display Condensed
p342
sg15
I400
sg16
g12
sg17
g12
sg18
V/System/Library/Fonts/SFNSDisplayCondensed-Black.otf
p343
sg20
g21
sbag1
(g8
g3
NtRp344
(dp345
g11
g12
sg13
VEstrangelo Edessa
p346
sg15
I400
sg16
g12
sg17
g12
sg18
V/usr/X11/lib/X11/fonts/OTF/SyrCOMEdessa.otf
p347
sg20
g21
sbag1
(g8
g3
NtRp348
(dp349
g11
g12
sg13
VKokonor
p350
sg15
I400
sg16
g12
sg17
g12
sg18
V/Library/Fonts/Kokonor.ttf
p351
sg20
g21
sbag1
(g8
g3
NtRp352
(dp353
g11
g12
sg13
VLuxi Sans
p354
sg15
I700
sg16
g12
sg17
g12
sg18
V/usr/X11/lib/X11/fonts/TTF/luxisb.ttf
p355
sg20
g21
sbag1
(g8
g3
NtRp356
(dp357
g11
g12
sg13
VApple Braille
p358
sg15
I400
sg16
g12
sg17
g12
sg18
V/System/Library/Fonts/Apple Braille.ttf
p359
sg20
g21
sbag1
(g8
g3
NtRp360
(dp361
g11
g12
sg13
VSystem Font
p362
sg15
I400
sg16
g12
sg17
g12
sg18
V/System/Library/Fonts/SFNSDisplay-LightItalic.otf
p363
sg20
g21
sbag1
(g8
g3
NtRp364
(dp365
g11
g12
sg13
VHack Nerd Font
p366
sg15
I700
sg16
g12
sg17
g12
sg18
V/Users/Fechin/Library/Fonts/Hack Bold Nerd Font Complete.ttf
p367
sg20
g21
sbag1
(g8
g3
NtRp368
(dp369
g11
g12
sg13
VMT Extra
p370
sg15
I400
sg16
g12
sg17
g12
sg18
V/Users/Fechin/.local/share/fonts/mtextra.ttf
p371
sg20
g21
sbag1
(g8
g3
NtRp372
(dp373
g11
g12
sg13
VEstrangelo Midyat
p374
sg15
I400
sg16
g12
sg17
g12
sg18
V/opt/X11/share/fonts/OTF/SyrCOMMidyat.otf
p375
sg20
g21
sbag1
(g8
g3
NtRp376
(dp377
g11
g12
sg13
VLuxi Serif
p378
sg15
I700
sg16
g12
sg17
g12
sg18
V/opt/X11/share/fonts/TTF/luxirb.ttf
p379
sg20
g21
sbag1
(g8
g3
NtRp380
(dp381
g11
g12
sg13
VSource Code Pro for Powerline
p382
sg15
I200
sg16
g12
sg17
g12
sg18
V/Users/Fechin/Library/Fonts/Source Code Pro Light for Powerline.otf
p383
sg20
g21
sbag1
(g8
g3
NtRp384
(dp385
g11
g28
sg13
VSTIXNonUnicode
p386
sg15
I400
sg16
g12
sg17
g12
sg18
V/Library/Fonts/STIXNonUniIta.otf
p387
sg20
g21
sbag1
(g8
g3
NtRp388
(dp389
g11
g28
sg13
VRoboto Mono Thin for Powerline
p390
sg15
I400
sg16
g12
sg17
g12
sg18
V/Users/Fechin/Library/Fonts/Roboto Mono Thin Italic for Powerline.ttf
p391
sg20
g21
sbag1
(g8
g3
NtRp392
(dp393
g11
g12
sg13
VLuxi Mono
p394
sg15
I700
sg16
g12
sg17
g12
sg18
V/usr/X11R6/lib/X11/fonts/TTF/luximb.ttf
p395
sg20
g21
sbag1
(g8
g3
NtRp396
(dp397
g11
g12
sg13
VSerto Mardin
p398
sg15
I700
sg16
g12
sg17
g12
sg18
V/opt/X11/share/fonts/OTF/SyrCOMMardinBold.otf
p399
sg20
g21
sbag1
(g8
g3
NtRp400
(dp401
g11
g12
sg13
VEstrangelo TurAbdin
p402
sg15
I400
sg16
g12
sg17
g12
sg18
V/usr/X11R6/lib/X11/fonts/OTF/SyrCOMTurAbdin.otf
p403
sg20
g21
sbag1
(g8
g3
NtRp404
(dp405
g11
g12
sg13
VSerto Jerusalem
p406
sg15
I700
sg16
g12
sg17
g12
sg18
V/opt/X11/share/fonts/OTF/SyrCOMJerusalemBold.otf
p407
sg20
g21
sbag1
(g8
g3
NtRp408
(dp409
g11
g12
sg13
VSTIXNonUnicode
p410
sg15
I700
sg16
g12
sg17
g12
sg18
V/Library/Fonts/STIXNonUniBol.otf
p411
sg20
g21
sbag1
(g8
g3
NtRp412
(dp413
g11
g12
sg13
VCousine for Powerline
p414
sg15
I700
sg16
g12
sg17
g12
sg18
V/Users/Fechin/Library/Fonts/Cousine Bold for Powerline.ttf
p415
sg20
g21
sbag1
(g8
g3
NtRp416
(dp417
g11
g12
sg13
VApple Braille
p418
sg15
I400
sg16
g12
sg17
g12
sg18
V/System/Library/Fonts/Apple Braille Pinpoint 6 Dot.ttf
p419
sg20
g21
sbag1
(g8
g3
NtRp420
(dp421
g11
g12
sg13
VSymbol
p422
sg15
I400
sg16
g12
sg17
g12
sg18
V/System/Library/Fonts/Symbol.ttf
p423
sg20
g21
sbag1
(g8
g3
NtRp424
(dp425
g11
g12
sg13
VSystem Font
p426
sg15
I400
sg16
g12
sg17
g12
sg18
V/System/Library/Fonts/SFNSDisplay-UltralightItalic.otf
p427
sg20
g21
sbag1
(g8
g3
NtRp428
(dp429
g11
g12
sg13
VNovaMono for Powerline
p430
sg15
I400
sg16
g12
sg17
g12
sg18
V/Users/Fechin/Library/Fonts/NovaMono for Powerline.ttf
p431
sg20
g21
sbag1
(g8
g3
NtRp432
(dp433
g11
g12
sg13
VLuxi Serif
p434
sg15
I400
sg16
g12
sg17
g12
sg18
V/usr/X11R6/lib/X11/fonts/TTF/luxirr.ttf
p435
sg20
g21
sbag1
(g8
g3
NtRp436
(dp437
g11
g12
sg13
VSource Code Pro for Powerline
p438
sg15
I900
sg16
g12
sg17
g12
sg18
V/Users/Fechin/Library/Fonts/Source Code Pro Black for Powerline.otf
p439
sg20
g21
sbag1
(g8
g3
NtRp440
(dp441
g11
g28
sg13
VMeslo LG M for Powerline
p442
sg15
I700
sg16
g12
sg17
g12
sg18
V/Users/Fechin/Library/Fonts/Meslo LG M Bold Italic for Powerline.ttf
p443
sg20
g21
sbag1
(g8
g3
NtRp444
(dp445
g11
g12
sg13
VGoha-Tibeb Zemen
p446
sg15
I400
sg16
g12
sg17
g12
sg18
V/usr/X11R6/lib/X11/fonts/OTF/GohaTibebZemen.otf
p447
sg20
g21
sbag1
(g8
g3
NtRp448
(dp449
g11
g12
sg13
VMeslo LG M for Powerline
p450
sg15
I400
sg16
g12
sg17
g12
sg18
V/Users/Fechin/Library/Fonts/Meslo LG M Regular for Powerline.ttf
p451
sg20
g21
sbag1
(g8
g3
NtRp452
(dp453
g11
g12
sg13
VEstrangelo Antioch
p454
sg15
I400
sg16
g12
sg17
g12
sg18
V/opt/X11/share/fonts/OTF/SyrCOMAntioch.otf
p455
sg20
g21
sbag1
(g8
g3
NtRp456
(dp457
g11
g12
sg13
VSTIXIntegralsUpSm
p458
sg15
I400
sg16
g12
sg17
g12
sg18
V/Library/Fonts/STIXIntUpSmReg.otf
p459
sg20
g21
sbag1
(g8
g3
NtRp460
(dp461
g11
g12
sg13
VWingdings
p462
sg15
I400
sg16
g12
sg17
g12
sg18
V/Users/Fechin/.local/share/fonts/wingding.ttf
p463
sg20
g21
sbag1
(g8
g3
NtRp464
(dp465
g11
g12
sg13
Vicomoon
p466
sg15
I400
sg16
g12
sg17
g12
sg18
V/Users/Fechin/Library/Fonts/devicons.ttf
p467
sg20
g21
sbag1
(g8
g3
NtRp468
(dp469
g11
g28
sg13
VCourier New
p470
sg15
I400
sg16
g12
sg17
g12
sg18
V/Library/Fonts/Courier New Italic.ttf
p471
sg20
g21
sbag1
(g8
g3
NtRp472
(dp473
g11
g12
sg13
VArial Black
p474
sg15
I900
sg16
g12
sg17
g12
sg18
V/Library/Fonts/Arial Black.ttf
p475
sg20
g21
sbag1
(g8
g3
NtRp476
(dp477
g11
g12
sg13
V.SF Compact Display
p478
sg15
I400
sg16
g12
sg17
g12
sg18
V/System/Library/Fonts/SFCompactDisplay-Thin.otf
p479
sg20
g21
sbag1
(g8
g3
NtRp480
(dp481
g11
g28
sg13
VSTIXGeneral
p482
sg15
I400
sg16
g12
sg17
g12
sg18
V/Library/Fonts/STIXGeneralItalic.otf
p483
sg20
g21
sbag1
(g8
g3
NtRp484
(dp485
g11
g28
sg13
VMeslo LG L for Powerline
p486
sg15
I400
sg16
g12
sg17
g12
sg18
V/Users/Fechin/Library/Fonts/Meslo LG L Italic for Powerline.ttf
p487
sg20
g21
sbag1
(g8
g3
NtRp488
(dp489
g11
g12
sg13
VBitstream Vera Sans
p490
sg15
I700
sg16
g12
sg17
g12
sg18
V/usr/X11R6/lib/X11/fonts/TTF/VeraBd.ttf
p491
sg20
g21
sbag1
(g8
g3
NtRp492
(dp493
g11
g12
sg13
VSTIXSizeFourSym
p494
sg15
I400
sg16
g12
sg17
g12
sg18
V/Library/Fonts/STIXSizFourSymReg.otf
p495
sg20
g21
sbag1
(g8
g3
NtRp496
(dp497
g11
g12
sg13
VWingdings 3
p498
sg15
I400
sg16
g12
sg17
g12
sg18
V/Library/Fonts/Wingdings 3.ttf
p499
sg20
g21
sbag1
(g8
g3
NtRp500
(dp501
g11
g12
sg13
VSpace Mono
p502
sg15
I400
sg16
g12
sg17
g12
sg18
V/Users/Fechin/Library/Fonts/SpaceMono-Regular.ttf
p503
sg20
g21
sbag1
(g8
g3
NtRp504
(dp505
g11
g45
sg13
VBitstream Vera Sans
p506
sg15
I700
sg16
g12
sg17
g12
sg18
V/opt/X11/share/fonts/TTF/VeraBI.ttf
p507
sg20
g21
sbag1
(g8
g3
NtRp508
(dp509
g11
g28
sg13
VSource Code Pro for Powerline
p510
sg15
I700
sg16
g12
sg17
g12
sg18
V/Users/Fechin/Library/Fonts/Source Code Pro Powerline SemiboldItalic.otf
p511
sg20
g21
sbag1
(g8
g3
NtRp512
(dp513
g11
g12
sg13
V.SF Compact Text
p514
sg15
I400
sg16
g12
sg17
g12
sg18
V/System/Library/Fonts/SFCompactText-Regular.otf
p515
sg20
g21
sbag1
(g8
g3
NtRp516
(dp517
g11
g12
sg13
VComic Sans MS
p518
sg15
I400
sg16
g12
sg17
g12
sg18
V/Library/Fonts/Comic Sans MS.ttf
p519
sg20
g21
sbag1
(g8
g3
NtRp520
(dp521
g11
g12
sg13
VFira Mono for Powerline
p522
sg15
I400
sg16
g12
sg17
g12
sg18
V/Users/Fechin/Library/Fonts/FuraMono-Regular Powerline.otf
p523
sg20
g21
sbag1
(g8
g3
NtRp524
(dp525
g11
g45
sg13
VLuxi Mono
p526
sg15
I400
sg16
g12
sg17
g12
sg18
V/opt/X11/share/fonts/TTF/luximri.ttf
p527
sg20
g21
sbag1
(g8
g3
NtRp528
(dp529
g11
g12
sg13
VIBM 3270 Semi-Narrow
p530
sg15
I400
sg16
Vcondensed
p531
sg17
g12
sg18
V/Users/Fechin/Library/Fonts/3270SemiNarrow.ttf
p532
sg20
g21
sbag1
(g8
g3
NtRp533
(dp534
g11
g28
sg13
VSource Code Pro for Powerline
p535
sg15
I200
sg16
g12
sg17
g12
sg18
V/Users/Fechin/Library/Fonts/Source Code Pro Powerline ExtraLightItalic.otf
p536
sg20
g21
sbag1
(g8
g3
NtRp537
(dp538
g11
g12
sg13
VImpact
p539
sg15
I400
sg16
g12
sg17
g12
sg18
V/Library/Fonts/Impact.ttf
p540
sg20
g21
sbag1
(g8
g3
NtRp541
(dp542
g11
g28
sg13
VMeslo LG M DZ for Powerline
p543
sg15
I400
sg16
g12
sg17
g12
sg18
V/Users/Fechin/Library/Fonts/Meslo LG M DZ Italic for Powerline.ttf
p544
sg20
g21
sbag1
(g8
g3
NtRp545
(dp546
g11
g12
sg13
VSource Code Pro for Powerline
p547
sg15
I400
sg16
g12
sg17
g12
sg18
V/Users/Fechin/Library/Fonts/Source Code Pro for Powerline.otf
p548
sg20
g21
sbag1
(g8
g3
NtRp549
(dp550
g11
g12
sg13
V.SF NS Text Condensed
p551
sg15
I400
sg16
g12
sg17
g12
sg18
V/System/Library/Fonts/SFNSTextCondensed-Light.otf
p552
sg20
g21
sbag1
(g8
g3
NtRp553
(dp554
g11
g28
sg13
VGeorgia
p555
sg15
I700
sg16
g12
sg17
g12
sg18
V/Library/Fonts/Georgia Bold Italic.ttf
p556
sg20
g21
sbag1
(g8
g3
NtRp557
(dp558
g11
g28
sg13
VMeslo LG L DZ for Powerline
p559
sg15
I700
sg16
g12
sg17
g12
sg18
V/Users/Fechin/Library/Fonts/Meslo LG L DZ Bold Italic for Powerline.ttf
p560
sg20
g21
sbag1
(g8
g3
NtRp561
(dp562
g11
g12
sg13
VWebdings
p563
sg15
I400
sg16
g12
sg17
g12
sg18
V/Users/Fechin/Library/Fonts/WEBDINGS.TTF
p564
sg20
g21
sbag1
(g8
g3
NtRp565
(dp566
g11
g12
sg13
VHoefler Text
p567
sg15
I400
sg16
g12
sg17
g12
sg18
V/Library/Fonts/Hoefler Text Ornaments.ttf
p568
sg20
g21
sbag1
(g8
g3
NtRp569
(dp570
g11
g12
sg13
V.SF Compact Text
p571
sg15
I400
sg16
g12
sg17
g12
sg18
V/System/Library/Fonts/SFCompactText-BoldItalic.otf
p572
sg20
g21
sbag1
(g8
g3
NtRp573
(dp574
g11
g12
sg13
VEstrangelo Nisibin
p575
sg15
I400
sg16
g12
sg17
g12
sg18
V/usr/X11/lib/X11/fonts/OTF/SyrCOMNisibin.otf
p576
sg20
g21
sbag1
(g8
g3
NtRp577
(dp578
g11
g12
sg13
VGo Mono for Powerline
p579
sg15
I400
sg16
g12
sg17
g12
sg18
V/Users/Fechin/Library/Fonts/Go Mono for Powerline.ttf
p580
sg20
g21
sbag1
(g8
g3
NtRp581
(dp582
g11
g12
sg13
V.SF Compact Rounded
p583
sg15
I400
sg16
g12
sg17
g12
sg18
V/System/Library/Fonts/SFCompactRounded-Medium.otf
p584
sg20
g21
sbag1
(g8
g3
NtRp585
(dp586
g11
g12
sg13
VRoboto Mono Thin for Powerline
p587
sg15
I400
sg16
g12
sg17
g12
sg18
V/Users/Fechin/Library/Fonts/Roboto Mono Thin for Powerline.ttf
p588
sg20
g21
sbag1
(g8
g3
NtRp589
(dp590
g11
g28
sg13
VSpace Mono for Powerline
p591
sg15
I400
sg16
g12
sg17
g12
sg18
V/Users/Fechin/Library/Fonts/Space Mono Italic for Powerline.ttf
p592
sg20
g21
sbag1
(g8
g3
NtRp593
(dp594
g11
g12
sg13
VMeslo LG M DZ for Powerline
p595
sg15
I700
sg16
g12
sg17
g12
sg18
V/Users/Fechin/Library/Fonts/Meslo LG M DZ Bold for Powerline.ttf
p596
sg20
g21
sbag1
(g8
g3
NtRp597
(dp598
g11
g45
sg13
VBitstream Vera Sans Mono
p599
sg15
I400
sg16
g12
sg17
g12
sg18
V/opt/X11/share/fonts/TTF/VeraMoIt.ttf
p600
sg20
g21
sbag1
(g8
g3
NtRp601
(dp602
g11
g12
sg13
V.SF NS Display Condensed
p603
sg15
I400
sg16
g12
sg17
g12
sg18
V/System/Library/Fonts/SFNSDisplayCondensed-Bold.otf
p604
sg20
g21
sbag1
(g8
g3
NtRp605
(dp606
g11
g28
sg13
VLiberation Mono for Powerline
p607
sg15
I700
sg16
g12
sg17
g12
sg18
V/Users/Fechin/Library/Fonts/Literation Mono Powerline Bold Italic.ttf
p608
sg20
g21
sbag1
(g8
g3
NtRp609
(dp610
g11
g12
sg13
VSerto Mardin
p611
sg15
I400
sg16
g12
sg17
g12
sg18
V/opt/X11/share/fonts/OTF/SyrCOMMardin.otf
p612
sg20
g21
sbag1
(g8
g3
NtRp613
(dp614
g11
g12
sg13
VEast Syriac Adiabene
p615
sg15
I400
sg16
g12
sg17
g12
sg18
V/opt/X11/share/fonts/OTF/SyrCOMAdiabene.otf
p616
sg20
g21
sbag1
(g8
g3
NtRp617
(dp618
g11
g28
sg13
VRoboto Mono for Powerline
p619
sg15
I400
sg16
g12
sg17
g12
sg18
V/Users/Fechin/Library/Fonts/Roboto Mono Italic for Powerline.ttf
p620
sg20
g21
sbag1
(g8
g3
NtRp621
(dp622
g11
g12
sg13
V.SF Compact Text
p623
sg15
I400
sg16
g12
sg17
g12
sg18
V/System/Library/Fonts/SFCompactText-Medium.otf
p624
sg20
g21
sbag1
(g8
g3
NtRp625
(dp626
g11
g45
sg13
VLuxi Sans
p627
sg15
I400
sg16
g12
sg17
g12
sg18
V/usr/X11/lib/X11/fonts/TTF/luxisri.ttf
p628
sg20
g21
sbag1
(g8
g3
NtRp629
(dp630
g11
g12
sg13
VZapf Dingbats
p631
sg15
I400
sg16
g12
sg17
g12
sg18
V/System/Library/Fonts/ZapfDingbats.ttf
p632
sg20
g21
sbag1
(g8
g3
NtRp633
(dp634
g11
g12
sg13
V.SF Compact Rounded
p635
sg15
I400
sg16
g12
sg17
g12
sg18
V/System/Library/Fonts/SFCompactRounded-Semibold.otf
p636
sg20
g21
sbag1
(g8
g3
NtRp637
(dp638
g11
g12
sg13
VSystem Font
p639
sg15
I400
sg16
g12
sg17
g12
sg18
V/System/Library/Fonts/SFNSTextItalic.ttf
p640
sg20
g21
sbag1
(g8
g3
NtRp641
(dp642
g11
g12
sg13
VLuminari
p643
sg15
I400
sg16
g12
sg17
g12
sg18
V/Library/Fonts/Luminari.ttf
p644
sg20
g21
sbag1
(g8
g3
NtRp645
(dp646
g11
g12
sg13
VSTIXSizeTwoSym
p647
sg15
I700
sg16
g12
sg17
g12
sg18
V/Library/Fonts/STIXSizTwoSymBol.otf
p648
sg20
g21
sbag1
(g8
g3
NtRp649
(dp650
g11
g12
sg13
VSTIXIntegralsSm
p651
sg15
I700
sg16
g12
sg17
g12
sg18
V/Library/Fonts/STIXIntSmBol.otf
p652
sg20
g21
sbag1
(g8
g3
NtRp653
(dp654
g11
g12
sg13
VWingdings 2
p655
sg15
I400
sg16
g12
sg17
g12
sg18
V/Users/Fechin/.local/share/fonts/WINGDNG2.ttf
p656
sg20
g21
sbag1
(g8
g3
NtRp657
(dp658
g11
g12
sg13
VBradley Hand
p659
sg15
I700
sg16
g12
sg17
g12
sg18
V/Library/Fonts/Bradley Hand Bold.ttf
p660
sg20
g21
sbag1
(g8
g3
NtRp661
(dp662
g11
g28
sg13
VMeslo LG M for Powerline
p663
sg15
I400
sg16
g12
sg17
g12
sg18
V/Users/Fechin/Library/Fonts/Meslo LG M Italic for Powerline.ttf
p664
sg20
g21
sbag1
(g8
g3
NtRp665
(dp666
g11
g12
sg13
VMeslo LG L DZ for Powerline
p667
sg15
I400
sg16
g12
sg17
g12
sg18
V/Users/Fechin/Library/Fonts/Meslo LG L DZ Regular for Powerline.ttf
p668
sg20
g21
sbag1
(g8
g3
NtRp669
(dp670
g11
g28
sg13
VCousine for Powerline
p671
sg15
I400
sg16
g12
sg17
g12
sg18
V/Users/Fechin/Library/Fonts/Cousine Italic for Powerline.ttf
p672
sg20
g21
sbag1
(g8
g3
NtRp673
(dp674
g11
g45
sg13
VBitstream Vera Sans
p675
sg15
I400
sg16
g12
sg17
g12
sg18
V/usr/X11/lib/X11/fonts/TTF/VeraIt.ttf
p676
sg20
g21
sbag1
(g8
g3
NtRp677
(dp678
g11
g12
sg13
VIBM 3270
p679
sg15
I500
sg16
g12
sg17
g12
sg18
V/Users/Fechin/Library/Fonts/3270Medium.ttf
p680
sg20
g21
sbag1
(g8
g3
NtRp681
(dp682
g11
g12
sg13
V.SF Compact Text
p683
sg15
I400
sg16
g12
sg17
g12
sg18
V/System/Library/Fonts/SFCompactText-Semibold.otf
p684
sg20
g21
sbag1
(g8
g3
NtRp685
(dp686
g11
g28
sg13
VSpace Mono
p687
sg15
I700
sg16
g12
sg17
g12
sg18
V/Users/Fechin/Library/Fonts/SpaceMono-BoldItalic.ttf
p688
sg20
g21
sbag1
(g8
g3
NtRp689
(dp690
g11
g12
sg13
V.LastResort
p691
sg15
I400
sg16
g12
sg17
g12
sg18
V/System/Library/Fonts/LastResort.otf
p692
sg20
g21
sbag1
(g8
g3
NtRp693
(dp694
g11
g12
sg13
V.SF Compact Text
p695
sg15
I400
sg16
g12
sg17
g12
sg18
V/System/Library/Fonts/SFCompactText-Bold.otf
p696
sg20
g21
sbag1
(g8
g3
NtRp697
(dp698
g11
g12
sg13
VSerto Batnan
p699
sg15
I400
sg16
g12
sg17
g12
sg18
V/usr/X11R6/lib/X11/fonts/OTF/SyrCOMBatnan.otf
p700
sg20
g21
sbag1
(g8
g3
NtRp701
(dp702
g11
g12
sg13
VVerdana
p703
sg15
I400
sg16
g12
sg17
g12
sg18
V/Library/Fonts/Verdana.ttf
p704
sg20
g21
sbag1
(g8
g3
NtRp705
(dp706
g11
g12
sg13
VFarisi
p707
sg15
I400
sg16
g12
sg17
g12
sg18
V/Library/Fonts/Farisi.ttf
p708
sg20
g21
sbag1
(g8
g3
NtRp709
(dp710
g11
g28
sg13
VMeslo LG S for Powerline
p711
sg15
I700
sg16
g12
sg17
g12
sg18
V/Users/Fechin/Library/Fonts/Meslo LG S Bold Italic for Powerline.ttf
p712
sg20
g21
sbag1
(g8
g3
NtRp713
(dp714
g11
g12
sg13
VSystem Font
p715
sg15
I400
sg16
g12
sg17
g12
sg18
V/System/Library/Fonts/SFNSText.ttf
p716
sg20
g21
sbag1
(g8
g3
NtRp717
(dp718
g11
g28
sg13
VCousine for Powerline
p719
sg15
I700
sg16
g12
sg17
g12
sg18
V/Users/Fechin/Library/Fonts/Cousine Bold Italic for Powerline.ttf
p720
sg20
g21
sbag1
(g8
g3
NtRp721
(dp722
g11
g12
sg13
VHack
p723
sg15
I700
sg16
g12
sg17
g12
sg18
V/Users/Fechin/Library/Fonts/Hack-Bold.ttf
p724
sg20
g21
sbag1
(g8
g3
NtRp725
(dp726
g11
g12
sg13
VSTIXNonUnicode
p727
sg15
I400
sg16
g12
sg17
g12
sg18
V/Library/Fonts/STIXNonUni.otf
p728
sg20
g21
sbag1
(g8
g3
NtRp729
(dp730
g11
g12
sg13
VBodoni 72 Smallcaps
p731
sg15
I400
sg16
g12
sg17
g12
sg18
V/Library/Fonts/Bodoni 72 Smallcaps Book.ttf
p732
sg20
g21
sbag1
(g8
g3
NtRp733
(dp734
g11
g12
sg13
VInconsolata for Powerline
p735
sg15
I400
sg16
g12
sg17
g12
sg18
V/Users/Fechin/Library/Fonts/Inconsolata for Powerline.otf
p736
sg20
g21
sbag1
(g8
g3
NtRp737
(dp738
g11
g12
sg13
VSpace Mono
p739
sg15
I700
sg16
g12
sg17
g12
sg18
V/Users/Fechin/Library/Fonts/SpaceMono-Bold.ttf
p740
sg20
g21
sbag1
(g8
g3
NtRp741
(dp742
g11
g28
sg13
VArial
p743
sg15
I400
sg16
g12
sg17
g12
sg18
V/Library/Fonts/Arial Italic.ttf
p744
sg20
g21
sbag1
(g8
g3
NtRp745
(dp746
g11
g28
sg13
VSTIXNonUnicode
p747
sg15
I700
sg16
g12
sg17
g12
sg18
V/Library/Fonts/STIXNonUniBolIta.otf
p748
sg20
g21
sbag1
(g8
g3
NtRp749
(dp750
g11
g12
sg13
VSTIXSizeFourSym
p751
sg15
I700
sg16
g12
sg17
g12
sg18
V/Library/Fonts/STIXSizFourSymBol.otf
p752
sg20
g21
sbag1
(g8
g3
NtRp753
(dp754
g11
g45
sg13
VLuxi Serif
p755
sg15
I700
sg16
g12
sg17
g12
sg18
V/usr/X11R6/lib/X11/fonts/TTF/luxirbi.ttf
p756
sg20
g21
sbag1
(g8
g3
NtRp757
(dp758
g11
g12
sg13
VSTIXIntegralsSm
p759
sg15
I400
sg16
g12
sg17
g12
sg18
V/Library/Fonts/STIXIntSmReg.otf
p760
sg20
g21
sbag1
(g8
g3
NtRp761
(dp762
g11
g12
sg13
VRoboto Mono Medium for Powerline
p763
sg15
I500
sg16
g12
sg17
g12
sg18
V/Users/Fechin/Library/Fonts/Roboto Mono Medium for Powerline.ttf
p764
sg20
g21
sbag1
(g8
g3
NtRp765
(dp766
g11
g28
sg13
VVerdana
p767
sg15
I400
sg16
g12
sg17
g12
sg18
V/Library/Fonts/Verdana Italic.ttf
p768
sg20
g21
sbag1
(g8
g3
NtRp769
(dp770
g11
g12
sg13
VChalkduster
p771
sg15
I400
sg16
g12
sg17
g12
sg18
V/Library/Fonts/Chalkduster.ttf
p772
sg20
g21
sbag1
(g8
g3
NtRp773
(dp774
g11
g12
sg13
VSerto Batnan
p775
sg15
I700
sg16
g12
sg17
g12
sg18
V/usr/X11/lib/X11/fonts/OTF/SyrCOMBatnanBold.otf
p776
sg20
g21
sbag1
(g8
g3
NtRp777
(dp778
g11
g12
sg13
VIBM 3270 Narrow
p779
sg15
I400
sg16
g531
sg17
g12
sg18
V/Users/Fechin/Library/Fonts/3270Narrow.ttf
p780
sg20
g21
sbag1
(g8
g3
NtRp781
(dp782
g11
g12
sg13
VSTIXIntegralsUp
p783
sg15
I400
sg16
g12
sg17
g12
sg18
V/Library/Fonts/STIXIntUpReg.otf
p784
sg20
g21
sbag1
(g8
g3
NtRp785
(dp786
g11
g28
sg13
VRoboto Mono Medium for Powerline
p787
sg15
I500
sg16
g12
sg17
g12
sg18
V/Users/Fechin/Library/Fonts/Roboto Mono Medium Italic for Powerline.ttf
p788
sg20
g21
sbag1
(g8
g3
NtRp789
(dp790
g11
g12
sg13
V.SF Compact Rounded
p791
sg15
I400
sg16
g12
sg17
g12
sg18
V/System/Library/Fonts/SFCompactRounded-Black.otf
p792
sg20
g21
sbag1
(g8
g3
NtRp793
(dp794
g11
g12
sg13
VMeslo LG S for Powerline
p795
sg15
I700
sg16
g12
sg17
g12
sg18
V/Users/Fechin/Library/Fonts/Meslo LG S Bold for Powerline.ttf
p796
sg20
g21
sbag1
(g8
g3
NtRp797
(dp798
g11
g12
sg13
VAyuthaya
p799
sg15
I400
sg16
g12
sg17
g12
sg18
V/Library/Fonts/Ayuthaya.ttf
p800
sg20
g21
sbag1
(g8
g3
NtRp801
(dp802
g11
g12
sg13
VSerto Kharput
p803
sg15
I400
sg16
g12
sg17
g12
sg18
V/usr/X11R6/lib/X11/fonts/OTF/SyrCOMKharput.otf
p804
sg20
g21
sbag1
(g8
g3
NtRp805
(dp806
g11
g12
sg13
V.SF Compact Rounded
p807
sg15
I400
sg16
g12
sg17
g12
sg18
V/System/Library/Fonts/SFCompactRounded-Bold.otf
p808
sg20
g21
sbag1
(g8
g3
NtRp809
(dp810
g11
g12
sg13
V.SF Compact Text
p811
sg15
I400
sg16
g12
sg17
g12
sg18
V/System/Library/Fonts/SFCompactText-RegularItalic.otf
p812
sg20
g21
sbag1
(g8
g3
NtRp813
(dp814
g11
g12
sg13
VGoha-Tibeb Zemen
p815
sg15
I400
sg16
g12
sg17
g12
sg18
V/opt/X11/share/fonts/TTF/GohaTibebZemen.ttf
p816
sg20
g21
sbag1
(g8
g3
NtRp817
(dp818
g11
g12
sg13
VDroid Sans Mono Dotted for Powerline
p819
sg15
I400
sg16
g12
sg17
g12
sg18
V/Users/Fechin/Library/Fonts/Droid Sans Mono Dotted for Powerline.ttf
p820
sg20
g21
sbag1
(g8
g3
NtRp821
(dp822
g11
g12
sg13
VSource Code Pro for Powerline
p823
sg15
I500
sg16
g12
sg17
g12
sg18
V/Users/Fechin/Library/Fonts/Source Code Pro Medium for Powerline.otf
p824
sg20
g21
sbag1
(g8
g3
NtRp825
(dp826
g11
g12
sg13
VWingdings
p827
sg15
I400
sg16
g12
sg17
g12
sg18
V/Library/Fonts/Wingdings.ttf
p828
sg20
g21
sbag1
(g8
g3
NtRp829
(dp830
g11
g45
sg13
VBitstream Vera Sans Mono
p831
sg15
I700
sg16
g12
sg17
g12
sg18
V/opt/X11/share/fonts/TTF/VeraMoBI.ttf
p832
sg20
g21
sbag1
(g8
g3
NtRp833
(dp834
g11
g12
sg13
VLiberation Mono for Powerline
p835
sg15
I400
sg16
g12
sg17
g12
sg18
V/Users/Fechin/Library/Fonts/Literation Mono Powerline.ttf
p836
sg20
g21
sbag1
(g8
g3
NtRp837
(dp838
g11
g12
sg13
VAndale Mono
p839
sg15
I400
sg16
g12
sg17
g12
sg18
V/Library/Fonts/Andale Mono.ttf
p840
sg20
g21
sbag1
(g8
g3
NtRp841
(dp842
g11
g12
sg13
VInconsolata-dz for Powerline
p843
sg15
I400
sg16
g12
sg17
g12
sg18
V/Users/Fechin/Library/Fonts/Inconsolata-dz for Powerline.otf
p844
sg20
g21
sbag1
(g8
g3
NtRp845
(dp846
g11
g12
sg13
VMeslo LG M DZ for Powerline
p847
sg15
I400
sg16
g12
sg17
g12
sg18
V/Users/Fechin/Library/Fonts/Meslo LG M DZ Regular for Powerline.ttf
p848
sg20
g21
sbag1
(g8
g3
NtRp849
(dp850
g11
g12
sg13
VSilom
p851
sg15
I400
sg16
g12
sg17
g12
sg18
V/Library/Fonts/Silom.ttf
p852
sg20
g21
sbag1
(g8
g3
NtRp853
(dp854
g11
g12
sg13
VTahoma
p855
sg15
I700
sg16
g12
sg17
g12
sg18
V/Library/Fonts/Tahoma Bold.ttf
p856
sg20
g21
sbag1
(g8
g3
NtRp857
(dp858
g11
g12
sg13
VGo Mono for Powerline
p859
sg15
I700
sg16
g12
sg17
g12
sg18
V/Users/Fechin/Library/Fonts/Go Mono Bold for Powerline.ttf
p860
sg20
g21
sbag1
(g8
g3
NtRp861
(dp862
g11
g12
sg13
VLao Sangam MN
p863
sg15
I400
sg16
g12
sg17
g12
sg18
V/Library/Fonts/Lao Sangam MN.ttf
p864
sg20
g21
sbag1
(g8
g3
NtRp865
(dp866
g11
g12
sg13
VEstrangelo Nisibin Outline
p867
sg15
I400
sg16
g12
sg17
g12
sg18
V/usr/X11/lib/X11/fonts/OTF/SyrCOMNisibinOutline.otf
p868
sg20
g21
sbag1
(g8
g3
NtRp869
(dp870
g11
g12
sg13
VBodoni Ornaments
p871
sg15
I400
sg16
g12
sg17
g12
sg18
V/Library/Fonts/Bodoni Ornaments.ttf
p872
sg20
g21
sbag1
(g8
g3
NtRp873
(dp874
g11
g12
sg13
V.SF Compact Rounded
p875
sg15
I400
sg16
g12
sg17
g12
sg18
V/System/Library/Fonts/SFCompactRounded-Regular.otf
p876
sg20
g21
sbag1
(g8
g3
NtRp877
(dp878
g11
g28
sg13
VMeslo LG M DZ for Powerline
p879
sg15
I700
sg16
g12
sg17
g12
sg18
V/Users/Fechin/Library/Fonts/Meslo LG M DZ Bold Italic for Powerline.ttf
p880
sg20
g21
sbag1
(g8
g3
NtRp881
(dp882
g11
g12
sg13
VDroid Sans Mono for Powerline Plus Nerd File Types Mono
p883
sg15
I400
sg16
g12
sg17
g12
sg18
V/Users/Fechin/Library/Fonts/DroidSansMonoForPowerlinePlusNerdFileTypesMono.otf
p884
sg20
g21
sbag1
(g8
g3
NtRp885
(dp886
g11
g12
sg13
VBig Caslon
p887
sg15
I500
sg16
g12
sg17
g12
sg18
V/Library/Fonts/BigCaslon.ttf
p888
sg20
g21
sbag1
(g8
g3
NtRp889
(dp890
g11
g12
sg13
VSystem Font
p891
sg15
I400
sg16
g12
sg17
g12
sg18
V/System/Library/Fonts/SFNSDisplay-ThinItalic.otf
p892
sg20
g21
sbag1
(g8
g3
NtRp893
(dp894
g11
g12
sg13
VSerto Jerusalem Outline
p895
sg15
I400
sg16
g12
sg17
g12
sg18
V/opt/X11/share/fonts/OTF/SyrCOMJerusalemOutline.otf
p896
sg20
g21
sbag1
(g8
g3
NtRp897
(dp898
g11
g12
sg13
VLiberation Mono for Powerline
p899
sg15
I700
sg16
g12
sg17
g12
sg18
V/Users/Fechin/Library/Fonts/Literation Mono Powerline Bold.ttf
p900
sg20
g21
sbag1
(g8
g3
NtRp901
(dp902
g11
g12
sg13
VVerdana
p903
sg15
I700
sg16
g12
sg17
g12
sg18
V/Library/Fonts/Verdana Bold.ttf
p904
sg20
g21
sbag1
(g8
g3
NtRp905
(dp906
g11
g45
sg13
VLuxi Sans
p907
sg15
I700
sg16
g12
sg17
g12
sg18
V/opt/X11/share/fonts/TTF/luxisbi.ttf
p908
sg20
g21
sbag1
(g8
g3
NtRp909
(dp910
g11
g12
sg13
VSTIXSizeThreeSym
p911
sg15
I400
sg16
g12
sg17
g12
sg18
V/Library/Fonts/STIXSizThreeSymReg.otf
p912
sg20
g21
sbag1
(g8
g3
NtRp913
(dp914
g11
g12
sg13
VDIN Condensed
p915
sg15
I700
sg16
g531
sg17
g12
sg18
V/Library/Fonts/DIN Condensed Bold.ttf
p916
sg20
g21
sbag1
(g8
g3
NtRp917
(dp918
g11
g45
sg13
VLuxi Serif
p919
sg15
I400
sg16
g12
sg17
g12
sg18
V/usr/X11R6/lib/X11/fonts/TTF/luxirri.ttf
p920
sg20
g21
sbag1
(g8
g3
NtRp921
(dp922
g11
g28
sg13
VSource Code Pro for Powerline
p923
sg15
I400
sg16
g12
sg17
g12
sg18
V/Users/Fechin/Library/Fonts/Source Code Pro Powerline Italic.otf
p924
sg20
g21
sbag1
(g8
g3
NtRp925
(dp926
g11
g12
sg13
VArial
p927
sg15
I400
sg16
g12
sg17
g12
sg18
V/Library/Fonts/Arial.ttf
p928
sg20
g21
sbag1
(g8
g3
NtRp929
(dp930
g11
g12
sg13
VAppleGothic
p931
sg15
I400
sg16
g12
sg17
g12
sg18
V/Library/Fonts/AppleGothic.ttf
p932
sg20
g21
sbag1
(g8
g3
NtRp933
(dp934
g11
g12
sg13
VArial Narrow
p935
sg15
I400
sg16
g531
sg17
g12
sg18
V/Library/Fonts/Arial Narrow.ttf
p936
sg20
g21
sbag1
(g8
g3
NtRp937
(dp938
g11
g12
sg13
V.SF NS Display Condensed
p939
sg15
I400
sg16
g12
sg17
g12
sg18
V/System/Library/Fonts/SFNSDisplayCondensed-Semibold.otf
p940
sg20
g21
sbag1
(g8
g3
NtRp941
(dp942
g11
g12
sg13
V.SF Compact Rounded
p943
sg15
I400
sg16
g12
sg17
g12
sg18
V/System/Library/Fonts/SFCompactRounded-Heavy.otf
p944
sg20
g21
sbag1
(g8
g3
NtRp945
(dp946
g11
g28
sg13
Vmonofur for Powerline
p947
sg15
I400
sg16
g12
sg17
g12
sg18
V/Users/Fechin/Library/Fonts/Monofur Italic for Powerline.ttf
p948
sg20
g21
sbag1
(g8
g3
NtRp949
(dp950
g11
g28
sg13
VGo Mono for Powerline
p951
sg15
I400
sg16
g12
sg17
g12
sg18
V/Users/Fechin/Library/Fonts/Go Mono Italic for Powerline.ttf
p952
sg20
g21
sbag1
(g8
g3
NtRp953
(dp954
g11
g12
sg13
VArial Narrow
p955
sg15
I700
sg16
g531
sg17
g12
sg18
V/Library/Fonts/Arial Narrow Bold.ttf
p956
sg20
g21
sbag1
(g8
g3
NtRp957
(dp958
g11
g28
sg13
VTimes New Roman
p959
sg15
I500
sg16
g12
sg17
g12
sg18
V/Library/Fonts/Times New Roman Italic.ttf
p960
sg20
g21
sbag1
(g8
g3
NtRp961
(dp962
g11
g12
sg13
V.SF NS Display Condensed
p963
sg15
I400
sg16
g12
sg17
g12
sg18
V/System/Library/Fonts/SFNSDisplayCondensed-Light.otf
p964
sg20
g21
sbag1
(g8
g3
NtRp965
(dp966
g11
g12
sg13
VGeorgia
p967
sg15
I400
sg16
g12
sg17
g12
sg18
V/Library/Fonts/Georgia.ttf
p968
sg20
g21
sbag1
(g8
g3
NtRp969
(dp970
g11
g12
sg13
VTrebuchet MS
p971
sg15
I700
sg16
g12
sg17
g12
sg18
V/Library/Fonts/Trebuchet MS Bold.ttf
p972
sg20
g21
sbag1
(g8
g3
NtRp973
(dp974
g11
g12
sg13
VLuxi Sans
p975
sg15
I400
sg16
g12
sg17
g12
sg18
V/opt/X11/share/fonts/TTF/luxisr.ttf
p976
sg20
g21
sbag1
(g8
g3
NtRp977
(dp978
g11
g28
sg13
VTimes New Roman
p979
sg15
I700
sg16
g12
sg17
g12
sg18
V/Library/Fonts/Times New Roman Bold Italic.ttf
p980
sg20
g21
sbag1
(g8
g3
NtRp981
(dp982
g11
g12
sg13
VWebdings
p983
sg15
I400
sg16
g12
sg17
g12
sg18
V/Library/Fonts/Webdings.ttf
p984
sg20
g21
sbag1
(g8
g3
NtRp985
(dp986
g11
g28
sg13
VArial Narrow
p987
sg15
I400
sg16
g531
sg17
g12
sg18
V/Library/Fonts/Arial Narrow Italic.ttf
p988
sg20
g21
sbag1
(g8
g3
NtRp989
(dp990
g11
g12
sg13
V.SF Compact Display
p991
sg15
I400
sg16
g12
sg17
g12
sg18
V/System/Library/Fonts/SFCompactDisplay-Regular.otf
p992
sg20
g21
sbag1
(g8
g3
NtRp993
(dp994
g11
g12
sg13
V.SF NS Display Condensed
p995
sg15
I400
sg16
g12
sg17
g12
sg18
V/System/Library/Fonts/SFNSDisplayCondensed-Ultralight.otf
p996
sg20
g21
sbag1
(g8
g3
NtRp997
(dp998
g11
g28
sg13
VMeslo LG S DZ for Powerline
p999
sg15
I400
sg16
g12
sg17
g12
sg18
V/Users/Fechin/Library/Fonts/Meslo LG S DZ Italic for Powerline.ttf
p1000
sg20
g21
sbag1
(g8
g3
NtRp1001
(dp1002
g11
g12
sg13
VPlantagenet Cherokee
p1003
sg15
I400
sg16
g12
sg17
g12
sg18
V/Library/Fonts/PlantagenetCherokee.ttf
p1004
sg20
g21
sbag1
(g8
g3
NtRp1005
(dp1006
g11
g12
sg13
VSTIXVariants
p1007
sg15
I400
sg16
g12
sg17
g12
sg18
V/Library/Fonts/STIXVar.otf
p1008
sg20
g21
sbag1
(g8
g3
NtRp1009
(dp1010
g11
g12
sg13
VMishafi
p1011
sg15
I400
sg16
g12
sg17
g12
sg18
V/Library/Fonts/Mishafi.ttf
p1012
sg20
g21
sbag1
(g8
g3
NtRp1013
(dp1014
g11
g12
sg13
VSystem Font
p1015
sg15
I400
sg16
g12
sg17
g12
sg18
V/System/Library/Fonts/SFNSDisplay-BlackItalic.otf
p1016
sg20
g21
sbag1
(g8
g3
NtRp1017
(dp1018
g11
g12
sg13
VSerto Jerusalem
p1019
sg15
I400
sg16
g12
sg17
g12
sg18
V/usr/X11R6/lib/X11/fonts/OTF/SyrCOMJerusalem.otf
p1020
sg20
g21
sbag1
(g8
g3
NtRp1021
(dp1022
g11
g12
sg13
VSkia
p1023
sg15
I400
sg16
g12
sg17
g12
sg18
V/Library/Fonts/Skia.ttf
p1024
sg20
g21
sbag1
(g8
g3
NtRp1025
(dp1026
g11
g12
sg13
V.SF Compact Display
p1027
sg15
I400
sg16
g12
sg17
g12
sg18
V/System/Library/Fonts/SFCompactDisplay-Light.otf
p1028
sg20
g21
sbag1
(g8
g3
NtRp1029
(dp1030
g11
g28
sg13
VLiberation Mono for Powerline
p1031
sg15
I400
sg16
g12
sg17
g12
sg18
V/Users/Fechin/Library/Fonts/Literation Mono Powerline Italic.ttf
p1032
sg20
g21
sbag1
(g8
g3
NtRp1033
(dp1034
g11
g28
sg13
VMeslo LG L DZ for Powerline
p1035
sg15
I400
sg16
g12
sg17
g12
sg18
V/Users/Fechin/Library/Fonts/Meslo LG L DZ Italic for Powerline.ttf
p1036
sg20
g21
sbag1
(g8
g3
NtRp1037
(dp1038
g11
g28
sg13
VArimo for Powerline
p1039
sg15
I700
sg16
g12
sg17
g12
sg18
V/Users/Fechin/Library/Fonts/Arimo Bold Italic for Powerline.ttf
p1040
sg20
g21
sbag1
(g8
g3
NtRp1041
(dp1042
g11
g12
sg13
VSource Code Pro for Powerline
p1043
sg15
I700
sg16
g12
sg17
g12
sg18
V/Users/Fechin/Library/Fonts/Source Code Pro Semibold for Powerline.otf
p1044
sg20
g21
sbag1
(g8
g3
NtRp1045
(dp1046
g11
g28
sg13
VCourier New
p1047
sg15
I700
sg16
g12
sg17
g12
sg18
V/Library/Fonts/Courier New Bold Italic.ttf
p1048
sg20
g21
sbag1
(g8
g3
NtRp1049
(dp1050
g11
g12
sg13
VArial Rounded MT Bold
p1051
sg15
I700
sg16
g12
sg17
g12
sg18
V/Library/Fonts/Arial Rounded Bold.ttf
p1052
sg20
g21
sbag1
(g8
g3
NtRp1053
(dp1054
g11
g28
sg13
VMeslo LG L for Powerline
p1055
sg15
I700
sg16
g12
sg17
g12
sg18
V/Users/Fechin/Library/Fonts/Meslo LG L Bold Italic for Powerline.ttf
p1056
sg20
g21
sbag1
(g8
g3
NtRp1057
(dp1058
g11
g12
sg13
VMeslo LG L for Powerline
p1059
sg15
I400
sg16
g12
sg17
g12
sg18
V/Users/Fechin/Library/Fonts/Meslo LG L Regular for Powerline.ttf
p1060
sg20
g21
sbag1
(g8
g3
NtRp1061
(dp1062
g11
g12
sg13
VSymbol Neu for Powerline
p1063
sg15
I400
sg16
g12
sg17
g12
sg18
V/Users/Fechin/Library/Fonts/Symbol Neu for Powerline.ttf
p1064
sg20
g21
sbag1
(g8
g3
NtRp1065
(dp1066
g11
g28
sg13
VSource Code Pro for Powerline
p1067
sg15
I900
sg16
g12
sg17
g12
sg18
V/Users/Fechin/Library/Fonts/Source Code Pro Powerline BlackItalic.otf
p1068
sg20
g21
sbag1
(g8
g3
NtRp1069
(dp1070
g11
g12
sg13
VArimo for Powerline
p1071
sg15
I700
sg16
g12
sg17
g12
sg18
V/Users/Fechin/Library/Fonts/Arimo Bold for Powerline.ttf
p1072
sg20
g21
sbag1
(g8
g3
NtRp1073
(dp1074
g11
g12
sg13
V.SF Compact Text
p1075
sg15
I400
sg16
g12
sg17
g12
sg18
V/System/Library/Fonts/SFCompactText-Heavy.otf
p1076
sg20
g21
sbag1
(g8
g3
NtRp1077
(dp1078
g11
g28
sg13
VHack Nerd Font
p1079
sg15
I400
sg16
g12
sg17
g12
sg18
V/Users/Fechin/Library/Fonts/Hack Italic Nerd Font Complete.ttf
p1080
sg20
g21
sbag1
(g8
g3
NtRp1081
(dp1082
g11
g28
sg13
VRoboto Mono for Powerline
p1083
sg15
I700
sg16
g12
sg17
g12
sg18
V/Users/Fechin/Library/Fonts/Roboto Mono Bold Italic for Powerline.ttf
p1084
sg20
g21
sbag1
(g8
g3
NtRp1085
(dp1086
g11
g12
sg13
VSystem Font
p1087
sg15
I400
sg16
g12
sg17
g12
sg18
V/System/Library/Fonts/SFNSDisplay-MediumItalic.otf
p1088
sg20
g21
sbag1
(g8
g3
NtRp1089
(dp1090
g11
g28
sg13
VSpace Mono
p1091
sg15
I400
sg16
g12
sg17
g12
sg18
V/Users/Fechin/Library/Fonts/SpaceMono-Italic.ttf
p1092
sg20
g21
sbag1
(g8
g3
NtRp1093
(dp1094
g11
g12
sg13
VUbuntu Mono derivative Powerline
p1095
sg15
I400
sg16
g12
sg17
g12
sg18
V/Users/Fechin/Library/Fonts/Ubuntu Mono derivative Powerline.ttf
p1096
sg20
g21
sbag1
(g8
g3
NtRp1097
(dp1098
g11
g12
sg13
V.SF Compact Text
p1099
sg15
I400
sg16
g12
sg17
g12
sg18
V/System/Library/Fonts/SFCompactText-MediumItalic.otf
p1100
sg20
g21
sbag1
(g8
g3
NtRp1101
(dp1102
g11
g12
sg13
VCousine for Powerline
p1103
sg15
I400
sg16
g12
sg17
g12
sg18
V/Users/Fechin/Library/Fonts/Cousine for Powerline.ttf
p1104
sg20
g21
sbag1
(g8
g3
NtRp1105
(dp1106
g11
g12
sg13
V.SF NS Text Condensed
p1107
sg15
I400
sg16
g12
sg17
g12
sg18
V/System/Library/Fonts/SFNSTextCondensed-Semibold.otf
p1108
sg20
g21
sbag1
(g8
g3
NtRp1109
(dp1110
g11
g12
sg13
VBitstream Vera Serif
p1111
sg15
I400
sg16
g12
sg17
g12
sg18
V/opt/X11/share/fonts/TTF/VeraSe.ttf
p1112
sg20
g21
sbag1
(g8
g3
NtRp1113
(dp1114
g11
g12
sg13
V.SF Compact Text
p1115
sg15
I400
sg16
g12
sg17
g12
sg18
V/System/Library/Fonts/SFCompactText-SemiboldItalic.otf
p1116
sg20
g21
sbag1
(g8
g3
NtRp1117
(dp1118
g11
g12
sg13
VSymbol
p1119
sg15
I400
sg16
g12
sg17
g12
sg18
V/Users/Fechin/Library/Fonts/symbol.ttf
p1120
sg20
g21
sbag1
(g8
g3
NtRp1121
(dp1122
g11
g12
sg13
VTinos for Powerline
p1123
sg15
I700
sg16
g12
sg17
g12
sg18
V/Users/Fechin/Library/Fonts/Tinos Bold for Powerline.ttf
p1124
sg20
g21
sbag1
(g8
g3
NtRp1125
(dp1126
g11
g12
sg13
VMeslo LG S for Powerline
p1127
sg15
I400
sg16
g12
sg17
g12
sg18
V/Users/Fechin/Library/Fonts/Meslo LG S Regular for Powerline.ttf
p1128
sg20
g21
sbag1
(g8
g3
NtRp1129
(dp1130
g11
g12
sg13
VNoto Mono for Powerline
p1131
sg15
I400
sg16
g12
sg17
g12
sg18
V/Users/Fechin/Library/Fonts/Noto Mono for Powerline.ttf
p1132
sg20
g21
sbag1
(g8
g3
NtRp1133
(dp1134
g11
g12
sg13
V.Keyboard
p1135
sg15
I400
sg16
g12
sg17
g12
sg18
V/System/Library/Fonts/Keyboard.ttf
p1136
sg20
g21
sbag1
(g8
g3
NtRp1137
(dp1138
g11
g12
sg13
VMicrosoft Sans Serif
p1139
sg15
I400
sg16
g12
sg17
g12
sg18
V/Library/Fonts/Microsoft Sans Serif.ttf
p1140
sg20
g21
sbag1
(g8
g3
NtRp1141
(dp1142
g11
g12
sg13
VSTIXIntegralsUpD
p1143
sg15
I700
sg16
g12
sg17
g12
sg18
V/Library/Fonts/STIXIntUpDBol.otf
p1144
sg20
g21
sbag1
(g8
g3
NtRp1145
(dp1146
g11
g12
sg13
VSTIXGeneral
p1147
sg15
I400
sg16
g12
sg17
g12
sg18
V/Library/Fonts/STIXGeneral.otf
p1148
sg20
g21
sbag1
(g8
g3
NtRp1149
(dp1150
g11
g28
sg13
VHack Nerd Font
p1151
sg15
I700
sg16
g12
sg17
g12
sg18
V/Users/Fechin/Library/Fonts/Hack Bold Italic Nerd Font Complete.ttf
p1152
sg20
g21
sbag1
(g8
g3
NtRp1153
(dp1154
g11
g28
sg13
VTinos for Powerline
p1155
sg15
I700
sg16
g12
sg17
g12
sg18
V/Users/Fechin/Library/Fonts/Tinos Bold Italic for Powerline.ttf
p1156
sg20
g21
sbag1
(g8
g3
NtRp1157
(dp1158
g11
g12
sg13
VSource Code Pro for Powerline
p1159
sg15
I200
sg16
g12
sg17
g12
sg18
V/Users/Fechin/Library/Fonts/Source Code Pro ExtraLight for Powerline.otf
p1160
sg20
g21
sbag1
(g8
g3
NtRp1161
(dp1162
g11
g12
sg13
VApple Chancery
p1163
sg15
I400
sg16
g12
sg17
g12
sg18
V/Library/Fonts/Apple Chancery.ttf
p1164
sg20
g21
sbag1
(g8
g3
NtRp1165
(dp1166
g11
g12
sg13
VSTIXIntegralsUpSm
p1167
sg15
I700
sg16
g12
sg17
g12
sg18
V/Library/Fonts/STIXIntUpSmBol.otf
p1168
sg20
g21
sbag1
(g8
g3
NtRp1169
(dp1170
g11
g12
sg13
VSTIXSizeOneSym
p1171
sg15
I700
sg16
g12
sg17
g12
sg18
V/Library/Fonts/STIXSizOneSymBol.otf
p1172
sg20
g21
sbag1
(g8
g3
NtRp1173
(dp1174
g11
g12
sg13
VDroid Sans Mono for Powerline
p1175
sg15
I400
sg16
g12
sg17
g12
sg18
V/Users/Fechin/Library/Fonts/Droid Sans Mono for Powerline.otf
p1176
sg20
g21
sbag1
(g8
g3
NtRp1177
(dp1178
g11
g12
sg13
VSpace Mono for Powerline
p1179
sg15
I400
sg16
g12
sg17
g12
sg18
V/Users/Fechin/Library/Fonts/Space Mono for Powerline.ttf
p1180
sg20
g21
sbag1
(g8
g3
NtRp1181
(dp1182
g11
g12
sg13
VSTIXSizeTwoSym
p1183
sg15
I400
sg16
g12
sg17
g12
sg18
V/Library/Fonts/STIXSizTwoSymReg.otf
p1184
sg20
g21
sbag1
(g8
g3
NtRp1185
(dp1186
g11
g28
sg13
VAnonymous Pro for Powerline
p1187
sg15
I700
sg16
g12
sg17
g12
sg18
V/Users/Fechin/Library/Fonts/Anonymice Powerline Bold Italic.ttf
p1188
sg20
g21
sbag1
(g8
g3
NtRp1189
(dp1190
g11
g12
sg13
VArial
p1191
sg15
I700
sg16
g12
sg17
g12
sg18
V/Library/Fonts/Arial Bold.ttf
p1192
sg20
g21
sbag1
(g8
g3
NtRp1193
(dp1194
g11
g12
sg13
VMeslo LG L for Powerline
p1195
sg15
I700
sg16
g12
sg17
g12
sg18
V/Users/Fechin/Library/Fonts/Meslo LG L Bold for Powerline.ttf
p1196
sg20
g21
sbag1
(g8
g3
NtRp1197
(dp1198
g11
g12
sg13
VGeorgia
p1199
sg15
I700
sg16
g12
sg17
g12
sg18
V/Library/Fonts/Georgia Bold.ttf
p1200
sg20
g21
sbag1
(g8
g3
NtRp1201
(dp1202
g11
g12
sg13
VSystem Font
p1203
sg15
I400
sg16
g12
sg17
g12
sg18
V/System/Library/Fonts/SFNSSymbols-Regular.otf
p1204
sg20
g21
sbag1
(g8
g3
NtRp1205
(dp1206
g11
g12
sg13
VInconsolata for Powerline
p1207
sg15
I700
sg16
g12
sg17
g12
sg18
V/Users/Fechin/Library/Fonts/Inconsolata Bold for Powerline.ttf
p1208
sg20
g21
sbag1
(g8
g3
NtRp1209
(dp1210
g11
g12
sg13
VSTIXIntegralsUpD
p1211
sg15
I400
sg16
g12
sg17
g12
sg18
V/Library/Fonts/STIXIntUpDReg.otf
p1212
sg20
g21
sbag1
(g8
g3
NtRp1213
(dp1214
g11
g12
sg13
VAnonymous Pro for Powerline
p1215
sg15
I400
sg16
g12
sg17
g12
sg18
V/Users/Fechin/Library/Fonts/Anonymice Powerline.ttf
p1216
sg20
g21
sbag1
(g8
g3
NtRp1217
(dp1218
g11
g12
sg13
V.SF Compact Display
p1219
sg15
I400
sg16
g12
sg17
g12
sg18
V/System/Library/Fonts/SFCompactDisplay-Medium.otf
p1220
sg20
g21
sbag1
(g8
g3
NtRp1221
(dp1222
g11
g12
sg13
VWingdings 3
p1223
sg15
I400
sg16
g12
sg17
g12
sg18
V/Users/Fechin/.local/share/fonts/WINGDNG3.ttf
p1224
sg20
g21
sbag1
(g8
g3
NtRp1225
(dp1226
g11
g28
sg13
VRoboto Mono Light for Powerline
p1227
sg15
I200
sg16
g12
sg17
g12
sg18
V/Users/Fechin/Library/Fonts/Roboto Mono Light Italic for Powerline.ttf
p1228
sg20
g21
sbag1
(g8
g3
NtRp1229
(dp1230
g11
g12
sg13
VArial Unicode MS
p1231
sg15
I400
sg16
g12
sg17
g12
sg18
V/Library/Fonts/Arial Unicode.ttf
p1232
sg20
g21
sbag1
(g8
g3
NtRp1233
(dp1234
g11
g12
sg13
VHack Nerd Font
p1235
sg15
I400
sg16
g12
sg17
g12
sg18
V/Users/Fechin/Library/Fonts/Hack Regular Nerd Font Complete.ttf
p1236
sg20
g21
sbag1
(g8
g3
NtRp1237
(dp1238
g11
g12
sg13
V.SF NS Text Condensed
p1239
sg15
I400
sg16
g12
sg17
g12
sg18
V/System/Library/Fonts/SFNSTextCondensed-Bold.otf
p1240
sg20
g21
sbag1
(g8
g3
NtRp1241
(dp1242
g11
g12
sg13
V.SF NS Text Condensed
p1243
sg15
I400
sg16
g12
sg17
g12
sg18
V/System/Library/Fonts/SFNSTextCondensed-Regular.otf
p1244
sg20
g21
sbag1
(g8
g3
NtRp1245
(dp1246
g11
g12
sg13
VSTIXIntegralsD
p1247
sg15
I700
sg16
g12
sg17
g12
sg18
V/Library/Fonts/STIXIntDBol.otf
p1248
sg20
g21
sbag1
(g8
g3
NtRp1249
(dp1250
g11
g12
sg13
VDIN Alternate
p1251
sg15
I700
sg16
g12
sg17
g12
sg18
V/Library/Fonts/DIN Alternate Bold.ttf
p1252
sg20
g21
sbag1
(g8
g3
NtRp1253
(dp1254
g11
g12
sg13
V.SF Compact Display
p1255
sg15
I400
sg16
g12
sg17
g12
sg18
V/System/Library/Fonts/SFCompactDisplay-Bold.otf
p1256
sg20
g21
sbag1
(g8
g3
NtRp1257
(dp1258
g11
g12
sg13
VCourier New
p1259
sg15
I400
sg16
g12
sg17
g12
sg18
V/Library/Fonts/Courier New.ttf
p1260
sg20
g21
sbag1
(g8
g3
NtRp1261
(dp1262
g11
g28
sg13
VArial Narrow
p1263
sg15
I700
sg16
g531
sg17
g12
sg18
V/Library/Fonts/Arial Narrow Bold Italic.ttf
p1264
sg20
g21
sbag1
(g8
g3
NtRp1265
(dp1266
g11
g12
sg13
VZapfino
p1267
sg15
I400
sg16
g12
sg17
g12
sg18
V/Library/Fonts/Zapfino.ttf
p1268
sg20
g21
sbag1
(g8
g3
NtRp1269
(dp1270
g11
g12
sg13
VKrungthep
p1271
sg15
I400
sg16
g12
sg17
g12
sg18
V/Library/Fonts/Krungthep.ttf
p1272
sg20
g21
sbag1
(g8
g3
NtRp1273
(dp1274
g11
g12
sg13
VTinos for Powerline
p1275
sg15
I400
sg16
g12
sg17
g12
sg18
V/Users/Fechin/Library/Fonts/Tinos for Powerline.ttf
p1276
sg20
g21
sbag1
(g8
g3
NtRp1277
(dp1278
g11
g28
sg13
VSource Code Pro for Powerline
p1279
sg15
I700
sg16
g12
sg17
g12
sg18
V/Users/Fechin/Library/Fonts/Source Code Pro Powerline BoldItalic.otf
p1280
sg20
g21
sbag1
(g8
g3
NtRp1281
(dp1282
g11
g12
sg13
VDiwan Thuluth
p1283
sg15
I400
sg16
g12
sg17
g12
sg18
V/Library/Fonts/Diwan Thuluth.ttf
p1284
sg20
g21
sbag1
(g8
g3
NtRp1285
(dp1286
g11
g12
sg13
VSTIXSizeOneSym
p1287
sg15
I400
sg16
g12
sg17
g12
sg18
V/Library/Fonts/STIXSizOneSymReg.otf
p1288
sg20
g21
sbag1
(g8
g3
NtRp1289
(dp1290
g11
g12
sg13
V.SF Compact Text
p1291
sg15
I400
sg16
g12
sg17
g12
sg18
V/System/Library/Fonts/SFCompactText-HeavyItalic.otf
p1292
sg20
g21
sbag1
(g8
g3
NtRp1293
(dp1294
g11
g12
sg13
V.SF Compact Rounded
p1295
sg15
I400
sg16
g12
sg17
g12
sg18
V/System/Library/Fonts/SFCompactRounded-Thin.otf
p1296
sg20
g21
sbag1
(g8
g3
NtRp1297
(dp1298
g11
g28
sg13
VSpace Mono for Powerline
p1299
sg15
I700
sg16
g12
sg17
g12
sg18
V/Users/Fechin/Library/Fonts/Space Mono Bold Italic for Powerline.ttf
p1300
sg20
g21
sbag1
(g8
g3
NtRp1301
(dp1302
g11
g28
sg13
VUbuntu Mono derivative Powerline
p1303
sg15
I700
sg16
g12
sg17
g12
sg18
V/Users/Fechin/Library/Fonts/Ubuntu Mono derivative Powerline Bold Italic.ttf
p1304
sg20
g21
sbag1
(g8
g3
NtRp1305
(dp1306
g11
g12
sg13
VApple Braille
p1307
sg15
I400
sg16
g12
sg17
g12
sg18
V/System/Library/Fonts/Apple Braille Outline 8 Dot.ttf
p1308
sg20
g21
sbag1
(g8
g3
NtRp1309
(dp1310
g11
g12
sg13
V.SF NS Text Condensed
p1311
sg15
I400
sg16
g12
sg17
g12
sg18
V/System/Library/Fonts/SFNSTextCondensed-Heavy.otf
p1312
sg20
g21
sbag1
(g8
g3
NtRp1313
(dp1314
g11
g12
sg13
VMeslo LG M for Powerline
p1315
sg15
I700
sg16
g12
sg17
g12
sg18
V/Users/Fechin/Library/Fonts/Meslo LG M Bold for Powerline.ttf
p1316
sg20
g21
sbag1
(g8
g3
NtRp1317
(dp1318
g11
g12
sg13
VTimes New Roman
p1319
sg15
I700
sg16
g12
sg17
g12
sg18
V/Library/Fonts/Times New Roman Bold.ttf
p1320
sg20
g21
sbag1
(g8
g3
NtRp1321
(dp1322
g11
g12
sg13
VMeslo LG S DZ for Powerline
p1323
sg15
I400
sg16
g12
sg17
g12
sg18
V/Users/Fechin/Library/Fonts/Meslo LG S DZ Regular for Powerline.ttf
p1324
sg20
g21
sbag1
(g8
g3
NtRp1325
(dp1326
g11
g12
sg13
VSTIXVariants
p1327
sg15
I700
sg16
g12
sg17
g12
sg18
V/Library/Fonts/STIXVarBol.otf
p1328
sg20
g21
sbag1
(g8
g3
NtRp1329
(dp1330
g11
g12
sg13
VProFont for Powerline
p1331
sg15
I700
sg16
g12
sg17
g12
sg18
V/Users/Fechin/Library/Fonts/ProFont Bold For Powerline.ttf
p1332
sg20
g21
sbag1
(g8
g3
NtRp1333
(dp1334
g11
g28
sg13
VAnonymous Pro for Powerline
p1335
sg15
I400
sg16
g12
sg17
g12
sg18
V/Users/Fechin/Library/Fonts/Anonymice Powerline Italic.ttf
p1336
sg20
g21
sbag1
(g8
g3
NtRp1337
(dp1338
g11
g12
sg13
VSTIXIntegralsUp
p1339
sg15
I700
sg16
g12
sg17
g12
sg18
V/Library/Fonts/STIXIntUpBol.otf
p1340
sg20
g21
sbag1
(g8
g3
NtRp1341
(dp1342
g11
g12
sg13
VArimo for Powerline
p1343
sg15
I400
sg16
g12
sg17
g12
sg18
V/Users/Fechin/Library/Fonts/Arimo for Powerline.ttf
p1344
sg20
g21
sbag1
(g8
g3
NtRp1345
(dp1346
g11
g12
sg13
VApple Braille
p1347
sg15
I400
sg16
g12
sg17
g12
sg18
V/System/Library/Fonts/Apple Braille Pinpoint 8 Dot.ttf
p1348
sg20
g21
sbag1
(g8
g3
NtRp1349
(dp1350
g11
g28
sg13
VGeorgia
p1351
sg15
I400
sg16
g12
sg17
g12
sg18
V/Library/Fonts/Georgia Italic.ttf
p1352
sg20
g21
sbag1
(g8
g3
NtRp1353
(dp1354
g11
g12
sg13
VApple Braille
p1355
sg15
I400
sg16
g12
sg17
g12
sg18
V/System/Library/Fonts/Apple Braille Outline 6 Dot.ttf
p1356
sg20
g21
sbag1
(g8
g3
NtRp1357
(dp1358
g11
g12
sg13
V.SF Compact Display
p1359
sg15
I400
sg16
g12
sg17
g12
sg18
V/System/Library/Fonts/SFCompactDisplay-Semibold.otf
p1360
sg20
g21
sbag1
(g8
g3
NtRp1361
(dp1362
g11
g12
sg13
VInconsolata-g for Powerline
p1363
sg15
I400
sg16
g12
sg17
g12
sg18
V/Users/Fechin/Library/Fonts/Inconsolata-g for Powerline.otf
p1364
sg20
g21
sbag1
(g8
g3
NtRp1365
(dp1366
g11
g12
sg13
V.SF Compact Display
p1367
sg15
I400
sg16
g12
sg17
g12
sg18
V/System/Library/Fonts/SFCompactDisplay-Black.otf
p1368
sg20
g21
sbag1
(g8
g3
NtRp1369
(dp1370
g11
g12
sg13
VSTIXGeneral
p1371
sg15
I700
sg16
g12
sg17
g12
sg18
V/Library/Fonts/STIXGeneralBol.otf
p1372
sg20
g21
sbag1
(g8
g3
NtRp1373
(dp1374
g11
g28
sg13
VHack
p1375
sg15
I400
sg16
g12
sg17
g12
sg18
V/Users/Fechin/Library/Fonts/Hack-Italic.ttf
p1376
sg20
g21
sbag1
(g8
g3
NtRp1377
(dp1378
g11
g12
sg13
VSystem Font
p1379
sg15
I400
sg16
g12
sg17
g12
sg18
V/System/Library/Fonts/SFNSDisplay-HeavyItalic.otf
p1380
sg20
g21
sbag1
(g8
g3
NtRp1381
(dp1382
g11
g12
sg13
VRoboto Mono Light for Powerline
p1383
sg15
I200
sg16
g12
sg17
g12
sg18
V/Users/Fechin/Library/Fonts/Roboto Mono Light for Powerline.ttf
p1384
sg20
g21
sbag1
(g8
g3
NtRp1385
(dp1386
g11
g28
sg13
VSTIXGeneral
p1387
sg15
I700
sg16
g12
sg17
g12
sg18
V/Library/Fonts/STIXGeneralBolIta.otf
p1388
sg20
g21
sbag1
(g8
g3
NtRp1389
(dp1390
g11
g12
sg13
VTrebuchet MS
p1391
sg15
I400
sg16
g12
sg17
g12
sg18
V/Library/Fonts/Trebuchet MS.ttf
p1392
sg20
g21
sbag1
(g8
g3
NtRp1393
(dp1394
g11
g12
sg13
VDroid Sans Mono Slashed for Powerline
p1395
sg15
I400
sg16
g12
sg17
g12
sg18
V/Users/Fechin/Library/Fonts/Droid Sans Mono Slashed for Powerline.ttf
p1396
sg20
g21
sbag1
(g8
g3
NtRp1397
(dp1398
g11
g12
sg13
VCourier New
p1399
sg15
I700
sg16
g12
sg17
g12
sg18
V/Library/Fonts/Courier New Bold.ttf
p1400
sg20
g21
sbag1
(g8
g3
NtRp1401
(dp1402
g11
g28
sg13
VSource Code Pro for Powerline
p1403
sg15
I200
sg16
g12
sg17
g12
sg18
V/Users/Fechin/Library/Fonts/Source Code Pro Powerline LightItalic.otf
p1404
sg20
g21
sbag1
(g8
g3
NtRp1405
(dp1406
g11
g12
sg13
VHerculanum
p1407
sg15
I400
sg16
g12
sg17
g12
sg18
V/Library/Fonts/Herculanum.ttf
p1408
sg20
g21
sbag1
(g8
g3
NtRp1409
(dp1410
g11
g28
sg13
VTrebuchet MS
p1411
sg15
I700
sg16
g12
sg17
g12
sg18
V/Library/Fonts/Trebuchet MS Bold Italic.ttf
p1412
sg20
g21
sbag1
(g8
g3
NtRp1413
(dp1414
g11
g12
sg13
VWingdings 2
p1415
sg15
I400
sg16
g12
sg17
g12
sg18
V/Library/Fonts/Wingdings 2.ttf
p1416
sg20
g21
sbag1
(g8
g3
NtRp1417
(dp1418
g11
g28
sg13
VArimo for Powerline
p1419
sg15
I400
sg16
g12
sg17
g12
sg18
V/Users/Fechin/Library/Fonts/Arimo Italic for Powerline.ttf
p1420
sg20
g21
sbag1
(g8
g3
NtRp1421
(dp1422
g11
g12
sg13
VTahoma
p1423
sg15
I400
sg16
g12
sg17
g12
sg18
V/Library/Fonts/Tahoma.ttf
p1424
sg20
g21
sbag1
(g8
g3
NtRp1425
(dp1426
g11
g28
sg13
VBrush Script MT
p1427
sg15
I400
sg16
g12
sg17
g12
sg18
V/Library/Fonts/Brush Script.ttf
p1428
sg20
g21
sbag1
(g8
g3
NtRp1429
(dp1430
g11
g12
sg13
V.SF NS Display Condensed
p1431
sg15
I400
sg16
g12
sg17
g12
sg18
V/System/Library/Fonts/SFNSDisplayCondensed-Regular.otf
p1432
sg20
g21
sbag1
(g8
g3
NtRp1433
(dp1434
g11
g12
sg13
V.SF NS Display Condensed
p1435
sg15
I400
sg16
g12
sg17
g12
sg18
V/System/Library/Fonts/SFNSDisplayCondensed-Heavy.otf
p1436
sg20
g21
sbag1
(g8
g3
NtRp1437
(dp1438
g11
g12
sg13
VKhmer Sangam MN
p1439
sg15
I400
sg16
g12
sg17
g12
sg18
V/Library/Fonts/Khmer Sangam MN.ttf
p1440
sg20
g21
sbag1
(g8
g3
NtRp1441
(dp1442
g11
g12
sg13
VAnonymous Pro for Powerline
p1443
sg15
I700
sg16
g12
sg17
g12
sg18
V/Users/Fechin/Library/Fonts/Anonymice Powerline Bold.ttf
p1444
sg20
g21
sbag1
(g8
g3
NtRp1445
(dp1446
g11
g12
sg13
Vmonofur for Powerline
p1447
sg15
I400
sg16
g12
sg17
g12
sg18
V/Users/Fechin/Library/Fonts/Monofur for Powerline.ttf
p1448
sg20
g21
sbag1
(g8
g3
NtRp1449
(dp1450
g11
g12
sg13
V.SF Compact Text
p1451
sg15
I400
sg16
g12
sg17
g12
sg18
V/System/Library/Fonts/SFCompactText-Light.otf
p1452
sg20
g21
sbag1
(g8
g3
NtRp1453
(dp1454
g11
g12
sg13
V.SF Compact Display
p1455
sg15
I400
sg16
g12
sg17
g12
sg18
V/System/Library/Fonts/SFCompactDisplay-Ultralight.otf
p1456
sg20
g21
sbag1
(g8
g3
NtRp1457
(dp1458
g11
g12
sg13
V.SF NS Display Condensed
p1459
sg15
I400
sg16
g12
sg17
g12
sg18
V/System/Library/Fonts/SFNSDisplayCondensed-Medium.otf
p1460
sg20
g21
sbag1
(g8
g3
NtRp1461
(dp1462
g11
g12
sg13
V.SF Compact Text
p1463
sg15
I400
sg16
g12
sg17
g12
sg18
V/System/Library/Fonts/SFCompactText-LightItalic.otf
p1464
sg20
g21
sbag1
(g8
g3
NtRp1465
(dp1466
g11
g12
sg13
V.SF NS Text Condensed
p1467
sg15
I400
sg16
g12
sg17
g12
sg18
V/System/Library/Fonts/SFNSTextCondensed-Medium.otf
p1468
sg20
g21
sbag1
(g8
g3
NtRp1469
(dp1470
g11
g12
sg13
VSystem Font
p1471
sg15
I400
sg16
g12
sg17
g12
sg18
V/System/Library/Fonts/SFNSDisplay.ttf
p1472
sg20
g21
sbag1
(g8
g3
NtRp1473
(dp1474
g11
g12
sg13
VUbuntu Mono derivative Powerline
p1475
sg15
I700
sg16
g12
sg17
g12
sg18
V/Users/Fechin/Library/Fonts/Ubuntu Mono derivative Powerline Bold.ttf
p1476
sg20
g21
sbag1
(g8
g3
NtRp1477
(dp1478
g11
g12
sg13
VApple Symbols
p1479
sg15
I400
sg16
g12
sg17
g12
sg18
V/System/Library/Fonts/Apple Symbols.ttf
p1480
sg20
g21
sbag1
(g8
g3
NtRp1481
(dp1482
g11
g12
sg13
VTrattatello
p1483
sg15
I400
sg16
g12
sg17
g12
sg18
V/Library/Fonts/Trattatello.ttf
p1484
sg20
g21
sbag1
(g8
g3
NtRp1485
(dp1486
g11
g12
sg13
VSTIXIntegralsD
p1487
sg15
I400
sg16
g12
sg17
g12
sg18
V/Library/Fonts/STIXIntDReg.otf
p1488
sg20
g21
sbag1
(g8
g3
NtRp1489
(dp1490
g11
g12
sg13
V.SF Compact Display
p1491
sg15
I400
sg16
g12
sg17
g12
sg18
V/System/Library/Fonts/SFCompactDisplay-Heavy.otf
p1492
sg20
g21
sbag1
(g8
g3
NtRp1493
(dp1494
g11
g12
sg13
VFira Mono for Powerline
p1495
sg15
I700
sg16
g12
sg17
g12
sg18
V/Users/Fechin/Library/Fonts/FuraMono-Bold Powerline.otf
p1496
sg20
g21
sbag1
(g8
g3
NtRp1497
(dp1498
g11
g12
sg13
VHack
p1499
sg15
I400
sg16
g12
sg17
g12
sg18
V/Users/Fechin/Library/Fonts/Hack-Regular.ttf
p1500
sg20
g21
sbag1
(g8
g3
NtRp1501
(dp1502
g11
g28
sg13
VTinos for Powerline
p1503
sg15
I400
sg16
g12
sg17
g12
sg18
V/Users/Fechin/Library/Fonts/Tinos Italic for Powerline.ttf
p1504
sg20
g21
sbag1
(g8
g3
NtRp1505
(dp1506
g11
g28
sg13
VGo Mono for Powerline
p1507
sg15
I700
sg16
g12
sg17
g12
sg18
V/Users/Fechin/Library/Fonts/Go Mono Bold Italic for Powerline.ttf
p1508
sg20
g21
sbag1
(g8
g3
NtRp1509
(dp1510
g11
g28
sg13
VUbuntu Mono derivative Powerline
p1511
sg15
I400
sg16
g12
sg17
g12
sg18
V/Users/Fechin/Library/Fonts/Ubuntu Mono derivative Powerline Italic.ttf
p1512
sg20
g21
sbag1
(g8
g3
NtRp1513
(dp1514
g11
g12
sg13
VSathu
p1515
sg15
I400
sg16
g12
sg17
g12
sg18
V/Library/Fonts/Sathu.ttf
p1516
sg20
g21
sbasS'defaultFamily'
p1517
(dp1518
Vafm
p1519
VHelvetica
p1520
sVttf
p1521
VDejaVu Sans
p1522
ssS'ttffiles'
p1523
(lp1524
g19
ag25
ag30
ag34
ag38
ag42
ag47
ag51
ag55
ag59
ag63
ag67
ag71
ag75
ag79
ag83
ag87
ag91
ag95
ag99
ag103
ag107
ag111
ag115
ag119
ag123
ag127
ag131
ag135
ag139
ag143
ag147
ag151
ag155
ag159
ag163
ag167
ag171
ag175
ag179
ag183
ag187
ag191
aV/Users/Fechin/Library/Fonts/DejaVu Sans Mono Bold for Powerline.ttf
p1525
ag195
ag199
aV/Library/Fonts/NISC18030.ttf
p1526
ag203
ag207
ag211
ag215
ag219
ag223
ag227
ag231
ag235
ag239
ag243
ag247
ag251
ag255
ag259
ag263
ag267
ag271
ag275
ag279
ag283
aV/usr/X11/lib/X11/fonts/TTF/VeraMono.ttf
p1527
ag287
ag291
ag295
ag299
ag303
ag307
ag311
ag315
ag319
aV/opt/X11/share/fonts/OTF/SyrCOMTalada.otf
p1528
ag323
ag327
ag331
aV/usr/X11/lib/X11/fonts/OTF/SyrCOMQenNeshrin.otf
p1529
ag335
ag339
ag343
ag347
ag351
aV/usr/X11R6/lib/X11/fonts/OTF/SyrCOMEdessa.otf
p1530
ag355
ag359
ag363
ag367
ag371
ag375
ag379
ag383
ag387
ag391
ag395
ag399
aV/usr/X11/lib/X11/fonts/OTF/SyrCOMUrhoy.otf
p1531
ag403
ag407
ag411
ag415
ag419
ag423
aV/usr/X11/lib/X11/fonts/TTF/VeraSeBd.ttf
p1532
ag427
ag431
ag435
ag439
ag443
ag447
ag451
ag455
ag459
ag463
ag467
ag471
ag475
aV/usr/X11/lib/X11/fonts/TTF/luxirr.ttf
p1533
ag479
ag483
ag487
ag491
ag495
ag499
ag503
aV/Users/Fechin/Library/Fonts/DejaVu Sans Mono Bold Oblique for Powerline.ttf
p1534
ag507
ag511
ag515
ag519
ag523
ag527
ag532
ag536
ag540
ag544
ag548
ag552
ag556
ag560
ag564
aV/usr/X11R6/lib/X11/fonts/TTF/VeraMoBd.ttf
p1535
aV/usr/X11/lib/X11/fonts/TTF/luximbi.ttf
p1536
ag568
ag572
ag576
ag580
ag584
ag588
ag592
ag596
aV/Users/Fechin/Library/Fonts/mtextra.ttf
p1537
ag600
ag604
aV/usr/X11/lib/X11/fonts/TTF/luximb.ttf
p1538
ag608
ag612
ag616
ag620
ag624
ag628
ag632
ag636
aV/usr/X11R6/lib/X11/fonts/OTF/SyrCOMMardinBold.otf
p1539
ag640
ag644
ag648
ag652
ag656
aV/opt/X11/share/fonts/OTF/SyrCOMTurAbdin.otf
p1540
ag660
aV/opt/X11/share/fonts/TTF/luxirr.ttf
p1541
ag664
ag668
aV/usr/X11R6/lib/X11/fonts/OTF/SyrCOMMidyat.otf
p1542
aV/usr/X11R6/lib/X11/fonts/OTF/SyrCOMUrhoyBold.otf
p1543
ag672
ag676
ag680
aV/Users/Fechin/Library/Fonts/DejaVu Sans Mono Oblique for Powerline.ttf
p1544
ag684
aV/usr/X11R6/lib/X11/fonts/TTF/luxirb.ttf
p1545
ag688
ag692
ag696
ag700
ag704
ag708
ag712
ag716
ag720
ag724
ag728
ag732
ag736
ag740
ag744
ag748
ag752
ag756
aV/usr/X11R6/lib/X11/fonts/OTF/SyrCOMCtesiphon.otf
p1546
ag760
ag764
ag768
ag772
aV/usr/X11/lib/X11/fonts/OTF/SyrCOMAntioch.otf
p1547
ag776
ag780
aV/usr/X11/lib/X11/fonts/OTF/SyrCOMJerusalemBold.otf
p1548
ag784
aV/opt/X11/share/fonts/TTF/VeraIt.ttf
p1549
ag788
ag792
ag796
ag800
ag804
ag808
aV/usr/X11R6/lib/X11/fonts/OTF/SyrCOMJerusalemBold.otf
p1550
ag812
ag816
ag820
ag824
ag828
aV/usr/X11R6/lib/X11/fonts/OTF/SyrCOMUrhoy.otf
p1551
ag832
ag836
ag840
ag844
ag848
ag852
aV/usr/X11R6/lib/X11/fonts/TTF/luxisri.ttf
p1552
ag856
aV/opt/X11/share/fonts/OTF/SyrCOMKharput.otf
p1553
aV/usr/X11/lib/X11/fonts/TTF/luximr.ttf
p1554
ag860
ag864
aV/usr/X11R6/lib/X11/fonts/TTF/GohaTibebZemen.ttf
p1555
aV/usr/X11R6/lib/X11/fonts/OTF/SyrCOMJerusalemItalic.otf
p1556
aV/opt/X11/share/fonts/TTF/luxisb.ttf
p1557
aV/Users/Fechin/.local/share/fonts/devicons.ttf
p1558
ag868
ag872
ag876
ag880
ag884
ag888
ag892
ag896
ag900
aV/usr/X11R6/lib/X11/fonts/TTF/VeraBI.ttf
p1559
ag904
ag908
ag912
ag916
aV/usr/X11R6/lib/X11/fonts/OTF/SyrCOMTalada.otf
p1560
ag920
aV/usr/X11R6/lib/X11/fonts/OTF/SyrCOMNisibin.otf
p1561
ag924
ag928
ag932
ag936
ag940
ag944
aV/usr/X11R6/lib/X11/fonts/TTF/VeraMoIt.ttf
p1562
ag948
aV/usr/X11/lib/X11/fonts/OTF/SyrCOMMardinBold.otf
p1563
ag952
ag956
ag960
ag964
ag968
aV/opt/X11/share/fonts/OTF/SyrCOMNisibinOutline.otf
p1564
ag972
ag976
aV/usr/X11/lib/X11/fonts/TTF/luxirb.ttf
p1565
ag980
ag984
ag988
ag992
ag996
ag1000
ag1004
ag1008
ag1012
ag1016
aV/opt/X11/share/fonts/TTF/luxirbi.ttf
p1566
ag1020
ag1024
aV/opt/X11/share/fonts/TTF/VeraMono.ttf
p1567
aV/opt/X11/share/fonts/OTF/SyrCOMEdessa.otf
p1568
aV/usr/X11R6/lib/X11/fonts/TTF/luxisbi.ttf
p1569
ag1028
ag1032
aV/usr/X11/lib/X11/fonts/TTF/luxisr.ttf
p1570
aV/usr/X11/lib/X11/fonts/TTF/VeraMoBd.ttf
p1571
aV/usr/X11/lib/X11/fonts/TTF/VeraMoBI.ttf
p1572
ag1036
ag1040
ag1044
ag1048
aV/usr/X11/lib/X11/fonts/TTF/VeraBd.ttf
p1573
ag1052
ag1056
ag1060
ag1064
ag1068
ag1072
aV/usr/X11R6/lib/X11/fonts/TTF/VeraIt.ttf
p1574
aV/opt/X11/share/fonts/TTF/luxisri.ttf
p1575
ag1076
ag1080
ag1084
ag1088
ag1092
ag1096
ag1100
ag1104
ag1108
ag1112
ag1116
ag1120
aV/usr/X11/lib/X11/fonts/TTF/luxisbi.ttf
p1576
ag1124
ag1128
ag1132
aV/Users/Fechin/.local/share/fonts/DroidSansMonoForPowerlinePlusNerdFileTypesMono.otf
p1577
ag1136
aV/usr/X11/lib/X11/fonts/OTF/SyrCOMAdiabene.otf
p1578
aV/usr/X11R6/lib/X11/fonts/TTF/luximbi.ttf
p1579
aV/usr/X11R6/lib/X11/fonts/OTF/SyrCOMMalankara.otf
p1580
ag1140
ag1144
ag1148
aV/usr/X11R6/lib/X11/fonts/TTF/luxisb.ttf
p1581
aV/usr/X11/lib/X11/fonts/OTF/GohaTibebZemen.otf
p1582
ag1152
ag1156
ag1160
ag1164
aV/usr/X11R6/lib/X11/fonts/OTF/SyrCOMMardin.otf
p1583
aV/usr/X11/lib/X11/fonts/TTF/Vera.ttf
p1584
aV/opt/X11/share/fonts/OTF/SyrCOMMalankara.otf
p1585
ag1168
aV/usr/X11R6/lib/X11/fonts/TTF/luxisr.ttf
p1586
ag1172
ag1176
ag1180
ag1184
ag1188
ag1192
ag1196
ag1200
ag1204
aV/usr/X11/lib/X11/fonts/OTF/SyrCOMJerusalemItalic.otf
p1587
ag1208
ag1212
aV/usr/X11R6/lib/X11/fonts/TTF/luximri.ttf
p1588
aV/opt/X11/share/fonts/OTF/SyrCOMUrhoyBold.otf
p1589
ag1216
ag1220
aV/usr/X11/lib/X11/fonts/TTF/luximri.ttf
p1590
ag1224
ag1228
ag1232
aV/usr/X11/lib/X11/fonts/TTF/VeraSe.ttf
p1591
aV/usr/X11R6/lib/X11/fonts/TTF/VeraMoBI.ttf
p1592
ag1236
aV/opt/X11/share/fonts/OTF/SyrCOMCtesiphon.otf
p1593
ag1240
aV/opt/X11/share/fonts/TTF/luxirri.ttf
p1594
aV/usr/X11/lib/X11/fonts/OTF/SyrCOMJerusalemOutline.otf
p1595
ag1244
ag1248
ag1252
ag1256
ag1260
ag1264
aV/usr/X11/lib/X11/fonts/OTF/SyrCOMJerusalem.otf
p1596
ag1268
aV/Users/Fechin/.local/share/fonts/symbol.ttf
p1597
ag1272
ag1276
aV/opt/X11/share/fonts/OTF/SyrCOMBatnan.otf
p1598
ag1280
aV/usr/X11/lib/X11/fonts/TTF/VeraMoIt.ttf
p1599
ag1284
ag1288
ag1292
aV/opt/X11/share/fonts/OTF/GohaTibebZemen.otf
p1600
ag1296
ag1300
ag1304
aV/usr/X11/lib/X11/fonts/OTF/SyrCOMMidyat.otf
p1601
ag1308
ag1312
ag1316
ag1320
aV/usr/X11/lib/X11/fonts/TTF/GohaTibebZemen.ttf
p1602
ag1324
ag1328
ag1332
ag1336
aV/usr/X11/lib/X11/fonts/OTF/SyrCOMBatnan.otf
p1603
ag1340
aV/opt/X11/share/fonts/TTF/VeraBd.ttf
p1604
aV/opt/X11/share/fonts/OTF/SyrCOMNisibin.otf
p1605
aV/Users/Fechin/Library/Fonts/DejaVu Sans Mono for Powerline.ttf
p1606
aV/opt/X11/share/fonts/TTF/VeraSeBd.ttf
p1607
aV/usr/X11R6/lib/X11/fonts/OTF/SyrCOMBatnanBold.otf
p1608
aV/usr/X11/lib/X11/fonts/OTF/SyrCOMMardin.otf
p1609
aV/usr/X11/lib/X11/fonts/TTF/luxirbi.ttf
p1610
aV/opt/X11/share/fonts/OTF/SyrCOMBatnanBold.otf
p1611
ag1344
ag1348
ag1352
aV/usr/X11R6/lib/X11/fonts/OTF/SyrCOMNisibinOutline.otf
p1612
ag1356
aV/usr/X11/lib/X11/fonts/OTF/SyrCOMKharput.otf
p1613
ag1360
aV/opt/X11/share/fonts/TTF/luximb.ttf
p1614
aV/usr/X11/lib/X11/fonts/TTF/luxirri.ttf
p1615
ag1364
ag1368
ag1372
ag1376
aV/usr/X11R6/lib/X11/fonts/OTF/SyrCOMAdiabene.otf
p1616
aV/usr/X11R6/lib/X11/fonts/OTF/SyrCOMQenNeshrin.otf
p1617
ag1380
ag1384
aV/opt/X11/share/fonts/TTF/Vera.ttf
p1618
ag1388
ag1392
ag1396
aV/usr/X11/lib/X11/fonts/TTF/VeraBI.ttf
p1619
ag1400
ag1404
ag1408
ag1412
aV/Users/Fechin/Library/Fonts/WINGDNG2.ttf
p1620
aV/usr/X11/lib/X11/fonts/OTF/SyrCOMTurAbdin.otf
p1621
ag1416
ag1420
ag1424
ag1428
aV/usr/X11R6/lib/X11/fonts/OTF/SyrCOMJerusalemOutline.otf
p1622
aV/Users/Fechin/Library/Fonts/WINGDNG3.ttf
p1623
ag1432
ag1436
ag1440
ag1444
ag1448
aV/usr/X11R6/lib/X11/fonts/TTF/luximr.ttf
p1624
ag1452
ag1456
ag1460
aV/usr/X11R6/lib/X11/fonts/OTF/SyrCOMAntioch.otf
p1625
ag1464
ag1468
ag1472
ag1476
ag1480
ag1484
aV/usr/X11R6/lib/X11/fonts/TTF/VeraSe.ttf
p1626
aV/Users/Fechin/Library/Fonts/wingding.ttf
p1627
aV/Users/Fechin/Library/Fonts/Ubuntu Mono derivative Powerline Nerd Font Complete.ttf
p1628
ag1488
ag1492
ag1496
ag1500
ag1504
ag1508
ag1512
ag1516
aV/opt/X11/share/fonts/OTF/SyrCOMJerusalem.otf
p1629
asS'_FontManager__default_weight'
p1630
Vnormal
p1631
sS'_version'
p1632
I201
sS'default_size'
p1633
NsS'defaultFont'
p1634
(dp1635
g1519
V/Users/Fechin/.pyenv/versions/2.7.15/lib/python2.7/site-packages/matplotlib/mpl-data/fonts/afm/phvbo8an.afm
p1636
sg1521
g19
ssS'afmfiles'
p1637
(lp1638
g1636
aV/Users/Fechin/.pyenv/versions/2.7.15/lib/python2.7/site-packages/matplotlib/mpl-data/fonts/pdfcorefonts/Helvetica.afm
p1639
aV/Users/Fechin/.pyenv/versions/2.7.15/lib/python2.7/site-packages/matplotlib/mpl-data/fonts/afm/pzdr.afm
p1640
aV/Users/Fechin/.pyenv/versions/2.7.15/lib/python2.7/site-packages/matplotlib/mpl-data/fonts/afm/pplbi8a.afm
p1641
aV/Users/Fechin/.pyenv/versions/2.7.15/lib/python2.7/site-packages/matplotlib/mpl-data/fonts/afm/cmtt10.afm
p1642
aV/Users/Fechin/.pyenv/versions/2.7.15/lib/python2.7/site-packages/matplotlib/mpl-data/fonts/afm/pcrb8a.afm
p1643
aV/Users/Fechin/.pyenv/versions/2.7.15/lib/python2.7/site-packages/matplotlib/mpl-data/fonts/afm/pagd8a.afm
p1644
aV/Users/Fechin/.pyenv/versions/2.7.15/lib/python2.7/site-packages/matplotlib/mpl-data/fonts/pdfcorefonts/Symbol.afm
p1645
aV/Users/Fechin/.pyenv/versions/2.7.15/lib/python2.7/site-packages/matplotlib/mpl-data/fonts/pdfcorefonts/Helvetica-BoldOblique.afm
p1646
aV/Users/Fechin/.pyenv/versions/2.7.15/lib/python2.7/site-packages/matplotlib/mpl-data/fonts/afm/pbkl8a.afm
p1647
aV/Users/Fechin/.pyenv/versions/2.7.15/lib/python2.7/site-packages/matplotlib/mpl-data/fonts/afm/phvb8a.afm
p1648
aV/Users/Fechin/.pyenv/versions/2.7.15/lib/python2.7/site-packages/matplotlib/mpl-data/fonts/pdfcorefonts/Times-BoldItalic.afm
p1649
aV/Users/Fechin/.pyenv/versions/2.7.15/lib/python2.7/site-packages/matplotlib/mpl-data/fonts/pdfcorefonts/ZapfDingbats.afm
p1650
aV/Users/Fechin/.pyenv/versions/2.7.15/lib/python2.7/site-packages/matplotlib/mpl-data/fonts/afm/pncr8a.afm
p1651
aV/Users/Fechin/.pyenv/versions/2.7.15/lib/python2.7/site-packages/matplotlib/mpl-data/fonts/pdfcorefonts/Courier-BoldOblique.afm
p1652
aV/Users/Fechin/.pyenv/versions/2.7.15/lib/python2.7/site-packages/matplotlib/mpl-data/fonts/afm/putr8a.afm
p1653
aV/Users/Fechin/.pyenv/versions/2.7.15/lib/python2.7/site-packages/matplotlib/mpl-data/fonts/pdfcorefonts/Times-Roman.afm
p1654
aV/Users/Fechin/.pyenv/versions/2.7.15/lib/python2.7/site-packages/matplotlib/mpl-data/fonts/afm/putbi8a.afm
p1655
aV/Users/Fechin/.pyenv/versions/2.7.15/lib/python2.7/site-packages/matplotlib/mpl-data/fonts/afm/pzcmi8a.afm
p1656
aV/Users/Fechin/.pyenv/versions/2.7.15/lib/python2.7/site-packages/matplotlib/mpl-data/fonts/afm/ptmri8a.afm
p1657
aV/Users/Fechin/.pyenv/versions/2.7.15/lib/python2.7/site-packages/matplotlib/mpl-data/fonts/afm/cmex10.afm
p1658
aV/Users/Fechin/.pyenv/versions/2.7.15/lib/python2.7/site-packages/matplotlib/mpl-data/fonts/pdfcorefonts/Courier-Oblique.afm
p1659
aV/Users/Fechin/.pyenv/versions/2.7.15/lib/python2.7/site-packages/matplotlib/mpl-data/fonts/afm/pncb8a.afm
p1660
aV/Users/Fechin/.pyenv/versions/2.7.15/lib/python2.7/site-packages/matplotlib/mpl-data/fonts/afm/putb8a.afm
p1661
aV/Users/Fechin/.pyenv/versions/2.7.15/lib/python2.7/site-packages/matplotlib/mpl-data/fonts/afm/pbkd8a.afm
p1662
aV/Users/Fechin/.pyenv/versions/2.7.15/lib/python2.7/site-packages/matplotlib/mpl-data/fonts/afm/pplb8a.afm
p1663
aV/Users/Fechin/.pyenv/versions/2.7.15/lib/python2.7/site-packages/matplotlib/mpl-data/fonts/afm/phvr8an.afm
p1664
aV/Users/Fechin/.pyenv/versions/2.7.15/lib/python2.7/site-packages/matplotlib/mpl-data/fonts/afm/pncbi8a.afm
p1665
aV/Users/Fechin/.pyenv/versions/2.7.15/lib/python2.7/site-packages/matplotlib/mpl-data/fonts/afm/putri8a.afm
p1666
aV/Users/Fechin/.pyenv/versions/2.7.15/lib/python2.7/site-packages/matplotlib/mpl-data/fonts/afm/ptmbi8a.afm
p1667
aV/Users/Fechin/.pyenv/versions/2.7.15/lib/python2.7/site-packages/matplotlib/mpl-data/fonts/afm/pagk8a.afm
p1668
aV/Users/Fechin/.pyenv/versions/2.7.15/lib/python2.7/site-packages/matplotlib/mpl-data/fonts/pdfcorefonts/Courier.afm
p1669
aV/Users/Fechin/.pyenv/versions/2.7.15/lib/python2.7/site-packages/matplotlib/mpl-data/fonts/afm/phvl8a.afm
p1670
aV/Users/Fechin/.pyenv/versions/2.7.15/lib/python2.7/site-packages/matplotlib/mpl-data/fonts/afm/pcrr8a.afm
p1671
aV/Users/Fechin/.pyenv/versions/2.7.15/lib/python2.7/site-packages/matplotlib/mpl-data/fonts/afm/pplr8a.afm
p1672
aV/Users/Fechin/.pyenv/versions/2.7.15/lib/python2.7/site-packages/matplotlib/mpl-data/fonts/afm/pncri8a.afm
p1673
aV/Users/Fechin/.pyenv/versions/2.7.15/lib/python2.7/site-packages/matplotlib/mpl-data/fonts/afm/phvro8a.afm
p1674
aV/Users/Fechin/.pyenv/versions/2.7.15/lib/python2.7/site-packages/matplotlib/mpl-data/fonts/pdfcorefonts/Courier-Bold.afm
p1675
aV/Users/Fechin/.pyenv/versions/2.7.15/lib/python2.7/site-packages/matplotlib/mpl-data/fonts/pdfcorefonts/Times-Bold.afm
p1676
aV/Users/Fechin/.pyenv/versions/2.7.15/lib/python2.7/site-packages/matplotlib/mpl-data/fonts/afm/pbkdi8a.afm
p1677
aV/Users/Fechin/.pyenv/versions/2.7.15/lib/python2.7/site-packages/matplotlib/mpl-data/fonts/afm/phvr8a.afm
p1678
aV/Users/Fechin/.pyenv/versions/2.7.15/lib/python2.7/site-packages/matplotlib/mpl-data/fonts/afm/phvb8an.afm
p1679
aV/Users/Fechin/.pyenv/versions/2.7.15/lib/python2.7/site-packages/matplotlib/mpl-data/fonts/afm/ptmr8a.afm
p1680
aV/Users/Fechin/.pyenv/versions/2.7.15/lib/python2.7/site-packages/matplotlib/mpl-data/fonts/afm/pcrbo8a.afm
p1681
aV/Users/Fechin/.pyenv/versions/2.7.15/lib/python2.7/site-packages/matplotlib/mpl-data/fonts/afm/pagko8a.afm
p1682
aV/Users/Fechin/.pyenv/versions/2.7.15/lib/python2.7/site-packages/matplotlib/mpl-data/fonts/afm/cmsy10.afm
p1683
aV/Users/Fechin/.pyenv/versions/2.7.15/lib/python2.7/site-packages/matplotlib/mpl-data/fonts/pdfcorefonts/Times-Italic.afm
p1684
aV/Users/Fechin/.pyenv/versions/2.7.15/lib/python2.7/site-packages/matplotlib/mpl-data/fonts/afm/pcrro8a.afm
p1685
aV/Users/Fechin/.pyenv/versions/2.7.15/lib/python2.7/site-packages/matplotlib/mpl-data/fonts/afm/cmmi10.afm
p1686
aV/Users/Fechin/.pyenv/versions/2.7.15/lib/python2.7/site-packages/matplotlib/mpl-data/fonts/pdfcorefonts/Helvetica-Bold.afm
p1687
aV/Users/Fechin/.pyenv/versions/2.7.15/lib/python2.7/site-packages/matplotlib/mpl-data/fonts/afm/cmr10.afm
p1688
aV/Users/Fechin/.pyenv/versions/2.7.15/lib/python2.7/site-packages/matplotlib/mpl-data/fonts/afm/pagdo8a.afm
p1689
aV/Users/Fechin/.pyenv/versions/2.7.15/lib/python2.7/site-packages/matplotlib/mpl-data/fonts/pdfcorefonts/Helvetica-Oblique.afm
p1690
aV/Users/Fechin/.pyenv/versions/2.7.15/lib/python2.7/site-packages/matplotlib/mpl-data/fonts/afm/phvro8an.afm
p1691
aV/Users/Fechin/.pyenv/versions/2.7.15/lib/python2.7/site-packages/matplotlib/mpl-data/fonts/afm/pbkli8a.afm
p1692
aV/Users/Fechin/.pyenv/versions/2.7.15/lib/python2.7/site-packages/matplotlib/mpl-data/fonts/afm/phvlo8a.afm
p1693
aV/Users/Fechin/.pyenv/versions/2.7.15/lib/python2.7/site-packages/matplotlib/mpl-data/fonts/afm/phvbo8a.afm
p1694
aV/Users/Fechin/.pyenv/versions/2.7.15/lib/python2.7/site-packages/matplotlib/mpl-data/fonts/afm/pplri8a.afm
p1695
aV/Users/Fechin/.pyenv/versions/2.7.15/lib/python2.7/site-packages/matplotlib/mpl-data/fonts/afm/psyr.afm
p1696
aV/Users/Fechin/.pyenv/versions/2.7.15/lib/python2.7/site-packages/matplotlib/mpl-data/fonts/afm/ptmb8a.afm
p1697
aV/usr/X11/lib/X11/fonts/Type1/UTB_____.afm
p1698
aV/usr/X11/lib/X11/fonts/Type1/c0583bt_.afm
p1699
aV/usr/X11/lib/X11/fonts/Type1/l049036t.afm
p1700
aV/usr/X11/lib/X11/fonts/Type1/c0649bt_.afm
p1701
aV/usr/X11/lib/X11/fonts/Type1/UTRG____.afm
p1702
aV/usr/X11/lib/X11/fonts/Type1/c0582bt_.afm
p1703
aV/usr/X11/lib/X11/fonts/Type1/c0648bt_.afm
p1704
aV/usr/X11/lib/X11/fonts/Type1/c0633bt_.afm
p1705
aV/usr/X11/lib/X11/fonts/Type1/l048013t.afm
p1706
aV/usr/X11/lib/X11/fonts/Type1/courb.afm
p1707
aV/usr/X11/lib/X11/fonts/Type1/c0419bt_.afm
p1708
aV/usr/X11/lib/X11/fonts/Type1/UTI_____.afm
p1709
aV/usr/X11/lib/X11/fonts/Type1/l049016t.afm
p1710
aV/usr/X11/lib/X11/fonts/Type1/l048033t.afm
p1711
aV/usr/X11/lib/X11/fonts/Type1/l048016t.afm
p1712
aV/usr/X11/lib/X11/fonts/Type1/l048036t.afm
p1713
aV/usr/X11/lib/X11/fonts/Type1/courbi.afm
p1714
aV/usr/X11/lib/X11/fonts/Type1/c0632bt_.afm
p1715
aV/usr/X11/lib/X11/fonts/Type1/l049013t.afm
p1716
aV/usr/X11/lib/X11/fonts/Type1/c0611bt_.afm
p1717
aV/usr/X11/lib/X11/fonts/Type1/l047036t.afm
p1718
aV/usr/X11/lib/X11/fonts/Type1/l047016t.afm
p1719
aV/usr/X11/lib/X11/fonts/Type1/l047033t.afm
p1720
aV/usr/X11/lib/X11/fonts/Type1/l047013t.afm
p1721
aV/usr/X11/lib/X11/fonts/Type1/l049033t.afm
p1722
aV/usr/X11/lib/X11/fonts/Type1/UTBI____.afm
p1723
aV/usr/X11/lib/X11/fonts/Type1/cour.afm
p1724
aV/usr/X11/lib/X11/fonts/Type1/couri.afm
p1725
asS'afmlist'
p1726
(lp1727
g1
(g8
g3
NtRp1728
(dp1729
g11
Vitalic
p1730
sg13
VHelvetica
p1731
sg15
I700
sg16
Vcondensed
p1732
sg17
Vnormal
p1733
sg18
g1636
sg20
Vscalable
p1734
sbag1
(g8
g3
NtRp1735
(dp1736
g11
g1733
sg13
VHelvetica
p1737
sg15
I500
sg16
g1733
sg17
g1733
sg18
g1639
sg20
g1734
sbag1
(g8
g3
NtRp1738
(dp1739
g11
g1733
sg13
VITC Zapf Dingbats
p1740
sg15
I500
sg16
g1733
sg17
g1733
sg18
g1640
sg20
g1734
sbag1
(g8
g3
NtRp1741
(dp1742
g11
g1730
sg13
VPalatino
p1743
sg15
I700
sg16
g1733
sg17
g1733
sg18
g1641
sg20
g1734
sbag1
(g8
g3
NtRp1744
(dp1745
g11
g1733
sg13
VComputer Modern
p1746
sg15
I500
sg16
g1733
sg17
g1733
sg18
g1642
sg20
g1734
sbag1
(g8
g3
NtRp1747
(dp1748
g11
g1733
sg13
VCourier
p1749
sg15
I700
sg16
g1733
sg17
g1733
sg18
g1643
sg20
g1734
sbag1
(g8
g3
NtRp1750
(dp1751
g11
g1733
sg13
VITC Avant Garde Gothic
p1752
sg15
I600
sg16
g1733
sg17
g1733
sg18
g1644
sg20
g1734
sbag1
(g8
g3
NtRp1753
(dp1754
g11
g1733
sg13
VSymbol
p1755
sg15
I500
sg16
g1733
sg17
g1733
sg18
g1645
sg20
g1734
sbag1
(g8
g3
NtRp1756
(dp1757
g11
g1730
sg13
VHelvetica
p1758
sg15
I700
sg16
g1733
sg17
g1733
sg18
g1646
sg20
g1734
sbag1
(g8
g3
NtRp1759
(dp1760
g11
g1733
sg13
VITC Bookman
p1761
sg15
I200
sg16
g1733
sg17
g1733
sg18
g1647
sg20
g1734
sbag1
(g8
g3
NtRp1762
(dp1763
g11
g1733
sg13
VHelvetica
p1764
sg15
I700
sg16
g1733
sg17
g1733
sg18
g1648
sg20
g1734
sbag1
(g8
g3
NtRp1765
(dp1766
g11
g1730
sg13
VTimes
p1767
sg15
I700
sg16
g1733
sg17
g1733
sg18
g1649
sg20
g1734
sbag1
(g8
g3
NtRp1768
(dp1769
g11
g1733
sg13
VZapfDingbats
p1770
sg15
I500
sg16
g1733
sg17
g1733
sg18
g1650
sg20
g1734
sbag1
(g8
g3
NtRp1771
(dp1772
g11
g1733
sg13
VNew Century Schoolbook
p1773
sg15
I500
sg16
g1733
sg17
g1733
sg18
g1651
sg20
g1734
sbag1
(g8
g3
NtRp1774
(dp1775
g11
g1730
sg13
VCourier
p1776
sg15
I700
sg16
g1733
sg17
g1733
sg18
g1652
sg20
g1734
sbag1
(g8
g3
NtRp1777
(dp1778
g11
g1733
sg13
VUtopia
p1779
sg15
I400
sg16
g1733
sg17
g1733
sg18
g1653
sg20
g1734
sbag1
(g8
g3
NtRp1780
(dp1781
g11
g1733
sg13
VTimes
p1782
sg15
I500
sg16
g1733
sg17
g1733
sg18
g1654
sg20
g1734
sbag1
(g8
g3
NtRp1783
(dp1784
g11
g1730
sg13
VUtopia
p1785
sg15
I700
sg16
g1733
sg17
g1733
sg18
g1655
sg20
g1734
sbag1
(g8
g3
NtRp1786
(dp1787
g11
g1730
sg13
VITC Zapf Chancery
p1788
sg15
I500
sg16
g1733
sg17
g1733
sg18
g1656
sg20
g1734
sbag1
(g8
g3
NtRp1789
(dp1790
g11
g1730
sg13
VTimes
p1791
sg15
I500
sg16
g1733
sg17
g1733
sg18
g1657
sg20
g1734
sbag1
(g8
g3
NtRp1792
(dp1793
g11
g1733
sg13
VComputer Modern
p1794
sg15
I500
sg16
g1733
sg17
g1733
sg18
g1658
sg20
g1734
sbag1
(g8
g3
NtRp1795
(dp1796
g11
g1730
sg13
VCourier
p1797
sg15
I500
sg16
g1733
sg17
g1733
sg18
g1659
sg20
g1734
sbag1
(g8
g3
NtRp1798
(dp1799
g11
g1733
sg13
VNew Century Schoolbook
p1800
sg15
I700
sg16
g1733
sg17
g1733
sg18
g1660
sg20
g1734
sbag1
(g8
g3
NtRp1801
(dp1802
g11
g1733
sg13
VUtopia
p1803
sg15
I700
sg16
g1733
sg17
g1733
sg18
g1661
sg20
g1734
sbag1
(g8
g3
NtRp1804
(dp1805
g11
g1733
sg13
VITC Bookman
p1806
sg15
I600
sg16
g1733
sg17
g1733
sg18
g1662
sg20
g1734
sbag1
(g8
g3
NtRp1807
(dp1808
g11
g1733
sg13
VPalatino
p1809
sg15
I700
sg16
g1733
sg17
g1733
sg18
g1663
sg20
g1734
sbag1
(g8
g3
NtRp1810
(dp1811
g11
g1733
sg13
VHelvetica
p1812
sg15
I500
sg16
g1732
sg17
g1733
sg18
g1664
sg20
g1734
sbag1
(g8
g3
NtRp1813
(dp1814
g11
g1730
sg13
VNew Century Schoolbook
p1815
sg15
I700
sg16
g1733
sg17
g1733
sg18
g1665
sg20
g1734
sbag1
(g8
g3
NtRp1816
(dp1817
g11
g1730
sg13
VUtopia
p1818
sg15
I400
sg16
g1733
sg17
g1733
sg18
g1666
sg20
g1734
sbag1
(g8
g3
NtRp1819
(dp1820
g11
g1730
sg13
VTimes
p1821
sg15
I700
sg16
g1733
sg17
g1733
sg18
g1667
sg20
g1734
sbag1
(g8
g3
NtRp1822
(dp1823
g11
g1733
sg13
VITC Avant Garde Gothic
p1824
sg15
I400
sg16
g1733
sg17
g1733
sg18
g1668
sg20
g1734
sbag1
(g8
g3
NtRp1825
(dp1826
g11
g1733
sg13
VCourier
p1827
sg15
I500
sg16
g1733
sg17
g1733
sg18
g1669
sg20
g1734
sbag1
(g8
g3
NtRp1828
(dp1829
g11
g1733
sg13
VHelvetica
p1830
sg15
I200
sg16
g1733
sg17
g1733
sg18
g1670
sg20
g1734
sbag1
(g8
g3
NtRp1831
(dp1832
g11
g1733
sg13
VCourier
p1833
sg15
I500
sg16
g1733
sg17
g1733
sg18
g1671
sg20
g1734
sbag1
(g8
g3
NtRp1834
(dp1835
g11
g1733
sg13
VPalatino
p1836
sg15
I500
sg16
g1733
sg17
g1733
sg18
g1672
sg20
g1734
sbag1
(g8
g3
NtRp1837
(dp1838
g11
g1730
sg13
VNew Century Schoolbook
p1839
sg15
I500
sg16
g1733
sg17
g1733
sg18
g1673
sg20
g1734
sbag1
(g8
g3
NtRp1840
(dp1841
g11
g1730
sg13
VHelvetica
p1842
sg15
I500
sg16
g1733
sg17
g1733
sg18
g1674
sg20
g1734
sbag1
(g8
g3
NtRp1843
(dp1844
g11
g1733
sg13
VCourier
p1845
sg15
I700
sg16
g1733
sg17
g1733
sg18
g1675
sg20
g1734
sbag1
(g8
g3
NtRp1846
(dp1847
g11
g1733
sg13
VTimes
p1848
sg15
I700
sg16
g1733
sg17
g1733
sg18
g1676
sg20
g1734
sbag1
(g8
g3
NtRp1849
(dp1850
g11
g1730
sg13
VITC Bookman
p1851
sg15
I600
sg16
g1733
sg17
g1733
sg18
g1677
sg20
g1734
sbag1
(g8
g3
NtRp1852
(dp1853
g11
g1733
sg13
VHelvetica
p1854
sg15
I500
sg16
g1733
sg17
g1733
sg18
g1678
sg20
g1734
sbag1
(g8
g3
NtRp1855
(dp1856
g11
g1733
sg13
VHelvetica
p1857
sg15
I700
sg16
g1732
sg17
g1733
sg18
g1679
sg20
g1734
sbag1
(g8
g3
NtRp1858
(dp1859
g11
g1733
sg13
VTimes
p1860
sg15
I500
sg16
g1733
sg17
g1733
sg18
g1680
sg20
g1734
sbag1
(g8
g3
NtRp1861
(dp1862
g11
g1730
sg13
VCourier
p1863
sg15
I700
sg16
g1733
sg17
g1733
sg18
g1681
sg20
g1734
sbag1
(g8
g3
NtRp1864
(dp1865
g11
g1730
sg13
VITC Avant Garde Gothic
p1866
sg15
I400
sg16
g1733
sg17
g1733
sg18
g1682
sg20
g1734
sbag1
(g8
g3
NtRp1867
(dp1868
g11
g1730
sg13
VComputer Modern
p1869
sg15
I500
sg16
g1733
sg17
g1733
sg18
g1683
sg20
g1734
sbag1
(g8
g3
NtRp1870
(dp1871
g11
g1730
sg13
VTimes
p1872
sg15
I500
sg16
g1733
sg17
g1733
sg18
g1684
sg20
g1734
sbag1
(g8
g3
NtRp1873
(dp1874
g11
g1730
sg13
VCourier
p1875
sg15
I500
sg16
g1733
sg17
g1733
sg18
g1685
sg20
g1734
sbag1
(g8
g3
NtRp1876
(dp1877
g11
g1730
sg13
VComputer Modern
p1878
sg15
I500
sg16
g1733
sg17
g1733
sg18
g1686
sg20
g1734
sbag1
(g8
g3
NtRp1879
(dp1880
g11
g1733
sg13
VHelvetica
p1881
sg15
I700
sg16
g1733
sg17
g1733
sg18
g1687
sg20
g1734
sbag1
(g8
g3
NtRp1882
(dp1883
g11
g1733
sg13
VComputer Modern
p1884
sg15
I500
sg16
g1733
sg17
g1733
sg18
g1688
sg20
g1734
sbag1
(g8
g3
NtRp1885
(dp1886
g11
g1730
sg13
VITC Avant Garde Gothic
p1887
sg15
I600
sg16
g1733
sg17
g1733
sg18
g1689
sg20
g1734
sbag1
(g8
g3
NtRp1888
(dp1889
g11
g1730
sg13
VHelvetica
p1890
sg15
I500
sg16
g1733
sg17
g1733
sg18
g1690
sg20
g1734
sbag1
(g8
g3
NtRp1891
(dp1892
g11
g1730
sg13
VHelvetica
p1893
sg15
I500
sg16
g1732
sg17
g1733
sg18
g1691
sg20
g1734
sbag1
(g8
g3
NtRp1894
(dp1895
g11
g1730
sg13
VITC Bookman
p1896
sg15
I200
sg16
g1733
sg17
g1733
sg18
g1692
sg20
g1734
sbag1
(g8
g3
NtRp1897
(dp1898
g11
g1730
sg13
VHelvetica
p1899
sg15
I200
sg16
g1733
sg17
g1733
sg18
g1693
sg20
g1734
sbag1
(g8
g3
NtRp1900
(dp1901
g11
g1730
sg13
VHelvetica
p1902
sg15
I700
sg16
g1733
sg17
g1733
sg18
g1694
sg20
g1734
sbag1
(g8
g3
NtRp1903
(dp1904
g11
g1730
sg13
VPalatino
p1905
sg15
I500
sg16
g1733
sg17
g1733
sg18
g1695
sg20
g1734
sbag1
(g8
g3
NtRp1906
(dp1907
g11
g1733
sg13
VSymbol
p1908
sg15
I500
sg16
g1733
sg17
g1733
sg18
g1696
sg20
g1734
sbag1
(g8
g3
NtRp1909
(dp1910
g11
g1733
sg13
VTimes
p1911
sg15
I700
sg16
g1733
sg17
g1733
sg18
g1697
sg20
g1734
sbag1
(g8
g3
NtRp1912
(dp1913
g11
g1733
sg13
VUtopia
p1914
sg15
I700
sg16
g1733
sg17
g1733
sg18
g1698
sg20
g1734
sbag1
(g8
g3
NtRp1915
(dp1916
g11
g1733
sg13
VCourier 10 Pitch
p1917
sg15
I700
sg16
g1733
sg17
g1733
sg18
g1699
sg20
g1734
sbag1
(g8
g3
NtRp1918
(dp1919
g11
g1730
sg13
VLuxi Serif
p1920
sg15
I700
sg16
g1733
sg17
g1733
sg18
g1700
sg20
g1734
sbag1
(g8
g3
NtRp1921
(dp1922
g11
g1730
sg13
VBitstream Charter
p1923
sg15
I400
sg16
g1733
sg17
g1733
sg18
g1701
sg20
g1734
sbag1
(g8
g3
NtRp1924
(dp1925
g11
g1733
sg13
VUtopia
p1926
sg15
I400
sg16
g1733
sg17
g1733
sg18
g1702
sg20
g1734
sbag1
(g8
g3
NtRp1927
(dp1928
g11
g1730
sg13
VCourier 10 Pitch
p1929
sg15
I400
sg16
g1733
sg17
g1733
sg18
g1703
sg20
g1734
sbag1
(g8
g3
NtRp1930
(dp1931
g11
g1733
sg13
VBitstream Charter
p1932
sg15
I400
sg16
g1733
sg17
g1733
sg18
g1704
sg20
g1734
sbag1
(g8
g3
NtRp1933
(dp1934
g11
g1730
sg13
VBitstream Charter
p1935
sg15
I700
sg16
g1733
sg17
g1733
sg18
g1705
sg20
g1734
sbag1
(g8
g3
NtRp1936
(dp1937
g11
g1733
sg13
VLuxi Sans
p1938
sg15
I400
sg16
g1733
sg17
g1733
sg18
g1706
sg20
g1734
sbag1
(g8
g3
NtRp1939
(dp1940
g11
g1733
sg13
VCourier
p1941
sg15
I700
sg16
g1733
sg17
g1733
sg18
g1707
sg20
g1734
sbag1
(g8
g3
NtRp1942
(dp1943
g11
g1733
sg13
VCourier 10 Pitch
p1944
sg15
I400
sg16
g1733
sg17
g1733
sg18
g1708
sg20
g1734
sbag1
(g8
g3
NtRp1945
(dp1946
g11
g1730
sg13
VUtopia
p1947
sg15
I400
sg16
g1733
sg17
g1733
sg18
g1709
sg20
g1734
sbag1
(g8
g3
NtRp1948
(dp1949
g11
g1733
sg13
VLuxi Serif
p1950
sg15
I700
sg16
g1733
sg17
g1733
sg18
g1710
sg20
g1734
sbag1
(g8
g3
NtRp1951
(dp1952
g11
g1730
sg13
VLuxi Sans
p1953
sg15
I400
sg16
g1733
sg17
g1733
sg18
g1711
sg20
g1734
sbag1
(g8
g3
NtRp1954
(dp1955
g11
g1733
sg13
VLuxi Sans
p1956
sg15
I700
sg16
g1733
sg17
g1733
sg18
g1712
sg20
g1734
sbag1
(g8
g3
NtRp1957
(dp1958
g11
g1730
sg13
VLuxi Sans
p1959
sg15
I700
sg16
g1733
sg17
g1733
sg18
g1713
sg20
g1734
sbag1
(g8
g3
NtRp1960
(dp1961
g11
g1730
sg13
VCourier
p1962
sg15
I700
sg16
g1733
sg17
g1733
sg18
g1714
sg20
g1734
sbag1
(g8
g3
NtRp1963
(dp1964
g11
g1733
sg13
VBitstream Charter
p1965
sg15
I700
sg16
g1733
sg17
g1733
sg18
g1715
sg20
g1734
sbag1
(g8
g3
NtRp1966
(dp1967
g11
g1733
sg13
VLuxi Serif
p1968
sg15
I400
sg16
g1733
sg17
g1733
sg18
g1716
sg20
g1734
sbag1
(g8
g3
NtRp1969
(dp1970
g11
g1730
sg13
VCourier 10 Pitch
p1971
sg15
I700
sg16
g1733
sg17
g1733
sg18
g1717
sg20
g1734
sbag1
(g8
g3
NtRp1972
(dp1973
g11
g1730
sg13
VLuxi Mono
p1974
sg15
I700
sg16
g1733
sg17
g1733
sg18
g1718
sg20
g1734
sbag1
(g8
g3
NtRp1975
(dp1976
g11
g1733
sg13
VLuxi Mono
p1977
sg15
I700
sg16
g1733
sg17
g1733
sg18
g1719
sg20
g1734
sbag1
(g8
g3
NtRp1978
(dp1979
g11
g1730
sg13
VLuxi Mono
p1980
sg15
I400
sg16
g1733
sg17
g1733
sg18
g1720
sg20
g1734
sbag1
(g8
g3
NtRp1981
(dp1982
g11
g1733
sg13
VLuxi Mono
p1983
sg15
I400
sg16
g1733
sg17
g1733
sg18
g1721
sg20
g1734
sbag1
(g8
g3
NtRp1984
(dp1985
g11
g1730
sg13
VLuxi Serif
p1986
sg15
I400
sg16
g1733
sg17
g1733
sg18
g1722
sg20
g1734
sbag1
(g8
g3
NtRp1987
(dp1988
g11
g1730
sg13
VUtopia
p1989
sg15
I700
sg16
g1733
sg17
g1733
sg18
g1723
sg20
g1734
sbag1
(g8
g3
NtRp1990
(dp1991
g11
g1733
sg13
VCourier
p1992
sg15
I400
sg16
g1733
sg17
g1733
sg18
g1724
sg20
g1734
sbag1
(g8
g3
NtRp1993
(dp1994
g11
g1730
sg13
VCourier
p1995
sg15
I400
sg16
g1733
sg17
g1733
sg18
g1725
sg20
g1734
sbasb.